(lp0
(lp1
S'buying_vhigh'
p2
aS'maint_vhigh'
p3
aS'doors_2'
p4
aS'persons_2'
p5
aS'lug_boot_small'
p6
aS'safety_low'
p7
aS'class_unacc'
p8
aa(lp9
g2
ag3
ag4
ag5
ag6
aS'safety_med'
p10
ag8
aa(lp11
g2
ag3
ag4
ag5
ag6
aS'safety_high'
p12
ag8
aa(lp13
g2
ag3
ag4
ag5
aS'lug_boot_med'
p14
ag7
ag8
aa(lp15
g2
ag3
ag4
ag5
ag14
ag10
ag8
aa(lp16
g2
ag3
ag4
ag5
ag14
ag12
ag8
aa(lp17
g2
ag3
ag4
ag5
aS'lug_boot_big'
p18
ag7
ag8
aa(lp19
g2
ag3
ag4
ag5
ag18
ag10
ag8
aa(lp20
g2
ag3
ag4
ag5
ag18
ag12
ag8
aa(lp21
g2
ag3
ag4
aS'persons_4'
p22
ag6
ag7
ag8
aa(lp23
g2
ag3
ag4
ag22
ag6
ag10
ag8
aa(lp24
g2
ag3
ag4
ag22
ag6
ag12
ag8
aa(lp25
g2
ag3
ag4
ag22
ag14
ag7
ag8
aa(lp26
g2
ag3
ag4
ag22
ag14
ag10
ag8
aa(lp27
g2
ag3
ag4
ag22
ag14
ag12
ag8
aa(lp28
g2
ag3
ag4
ag22
ag18
ag7
ag8
aa(lp29
g2
ag3
ag4
ag22
ag18
ag10
ag8
aa(lp30
g2
ag3
ag4
ag22
ag18
ag12
ag8
aa(lp31
g2
ag3
ag4
aS'persons_more'
p32
ag6
ag7
ag8
aa(lp33
g2
ag3
ag4
ag32
ag6
ag10
ag8
aa(lp34
g2
ag3
ag4
ag32
ag6
ag12
ag8
aa(lp35
g2
ag3
ag4
ag32
ag14
ag7
ag8
aa(lp36
g2
ag3
ag4
ag32
ag14
ag10
ag8
aa(lp37
g2
ag3
ag4
ag32
ag14
ag12
ag8
aa(lp38
g2
ag3
ag4
ag32
ag18
ag7
ag8
aa(lp39
g2
ag3
ag4
ag32
ag18
ag10
ag8
aa(lp40
g2
ag3
ag4
ag32
ag18
ag12
ag8
aa(lp41
g2
ag3
aS'doors_3'
p42
ag5
ag6
ag7
ag8
aa(lp43
g2
ag3
ag42
ag5
ag6
ag10
ag8
aa(lp44
g2
ag3
ag42
ag5
ag6
ag12
ag8
aa(lp45
g2
ag3
ag42
ag5
ag14
ag7
ag8
aa(lp46
g2
ag3
ag42
ag5
ag14
ag10
ag8
aa(lp47
g2
ag3
ag42
ag5
ag14
ag12
ag8
aa(lp48
g2
ag3
ag42
ag5
ag18
ag7
ag8
aa(lp49
g2
ag3
ag42
ag5
ag18
ag10
ag8
aa(lp50
g2
ag3
ag42
ag5
ag18
ag12
ag8
aa(lp51
g2
ag3
ag42
ag22
ag6
ag7
ag8
aa(lp52
g2
ag3
ag42
ag22
ag6
ag10
ag8
aa(lp53
g2
ag3
ag42
ag22
ag6
ag12
ag8
aa(lp54
g2
ag3
ag42
ag22
ag14
ag7
ag8
aa(lp55
g2
ag3
ag42
ag22
ag14
ag10
ag8
aa(lp56
g2
ag3
ag42
ag22
ag14
ag12
ag8
aa(lp57
g2
ag3
ag42
ag22
ag18
ag7
ag8
aa(lp58
g2
ag3
ag42
ag22
ag18
ag10
ag8
aa(lp59
g2
ag3
ag42
ag22
ag18
ag12
ag8
aa(lp60
g2
ag3
ag42
ag32
ag6
ag7
ag8
aa(lp61
g2
ag3
ag42
ag32
ag6
ag10
ag8
aa(lp62
g2
ag3
ag42
ag32
ag6
ag12
ag8
aa(lp63
g2
ag3
ag42
ag32
ag14
ag7
ag8
aa(lp64
g2
ag3
ag42
ag32
ag14
ag10
ag8
aa(lp65
g2
ag3
ag42
ag32
ag14
ag12
ag8
aa(lp66
g2
ag3
ag42
ag32
ag18
ag7
ag8
aa(lp67
g2
ag3
ag42
ag32
ag18
ag10
ag8
aa(lp68
g2
ag3
ag42
ag32
ag18
ag12
ag8
aa(lp69
g2
ag3
aS'doors_4'
p70
ag5
ag6
ag7
ag8
aa(lp71
g2
ag3
ag70
ag5
ag6
ag10
ag8
aa(lp72
g2
ag3
ag70
ag5
ag6
ag12
ag8
aa(lp73
g2
ag3
ag70
ag5
ag14
ag7
ag8
aa(lp74
g2
ag3
ag70
ag5
ag14
ag10
ag8
aa(lp75
g2
ag3
ag70
ag5
ag14
ag12
ag8
aa(lp76
g2
ag3
ag70
ag5
ag18
ag7
ag8
aa(lp77
g2
ag3
ag70
ag5
ag18
ag10
ag8
aa(lp78
g2
ag3
ag70
ag5
ag18
ag12
ag8
aa(lp79
g2
ag3
ag70
ag22
ag6
ag7
ag8
aa(lp80
g2
ag3
ag70
ag22
ag6
ag10
ag8
aa(lp81
g2
ag3
ag70
ag22
ag6
ag12
ag8
aa(lp82
g2
ag3
ag70
ag22
ag14
ag7
ag8
aa(lp83
g2
ag3
ag70
ag22
ag14
ag10
ag8
aa(lp84
g2
ag3
ag70
ag22
ag14
ag12
ag8
aa(lp85
g2
ag3
ag70
ag22
ag18
ag7
ag8
aa(lp86
g2
ag3
ag70
ag22
ag18
ag10
ag8
aa(lp87
g2
ag3
ag70
ag22
ag18
ag12
ag8
aa(lp88
g2
ag3
ag70
ag32
ag6
ag7
ag8
aa(lp89
g2
ag3
ag70
ag32
ag6
ag10
ag8
aa(lp90
g2
ag3
ag70
ag32
ag6
ag12
ag8
aa(lp91
g2
ag3
ag70
ag32
ag14
ag7
ag8
aa(lp92
g2
ag3
ag70
ag32
ag14
ag10
ag8
aa(lp93
g2
ag3
ag70
ag32
ag14
ag12
ag8
aa(lp94
g2
ag3
ag70
ag32
ag18
ag7
ag8
aa(lp95
g2
ag3
ag70
ag32
ag18
ag10
ag8
aa(lp96
g2
ag3
ag70
ag32
ag18
ag12
ag8
aa(lp97
g2
ag3
aS'doors_5_more'
p98
ag5
ag6
ag7
ag8
aa(lp99
g2
ag3
ag98
ag5
ag6
ag10
ag8
aa(lp100
g2
ag3
ag98
ag5
ag6
ag12
ag8
aa(lp101
g2
ag3
ag98
ag5
ag14
ag7
ag8
aa(lp102
g2
ag3
ag98
ag5
ag14
ag10
ag8
aa(lp103
g2
ag3
ag98
ag5
ag14
ag12
ag8
aa(lp104
g2
ag3
ag98
ag5
ag18
ag7
ag8
aa(lp105
g2
ag3
ag98
ag5
ag18
ag10
ag8
aa(lp106
g2
ag3
ag98
ag5
ag18
ag12
ag8
aa(lp107
g2
ag3
ag98
ag22
ag6
ag7
ag8
aa(lp108
g2
ag3
ag98
ag22
ag6
ag10
ag8
aa(lp109
g2
ag3
ag98
ag22
ag6
ag12
ag8
aa(lp110
g2
ag3
ag98
ag22
ag14
ag7
ag8
aa(lp111
g2
ag3
ag98
ag22
ag14
ag10
ag8
aa(lp112
g2
ag3
ag98
ag22
ag14
ag12
ag8
aa(lp113
g2
ag3
ag98
ag22
ag18
ag7
ag8
aa(lp114
g2
ag3
ag98
ag22
ag18
ag10
ag8
aa(lp115
g2
ag3
ag98
ag22
ag18
ag12
ag8
aa(lp116
g2
ag3
ag98
ag32
ag6
ag7
ag8
aa(lp117
g2
ag3
ag98
ag32
ag6
ag10
ag8
aa(lp118
g2
ag3
ag98
ag32
ag6
ag12
ag8
aa(lp119
g2
ag3
ag98
ag32
ag14
ag7
ag8
aa(lp120
g2
ag3
ag98
ag32
ag14
ag10
ag8
aa(lp121
g2
ag3
ag98
ag32
ag14
ag12
ag8
aa(lp122
g2
ag3
ag98
ag32
ag18
ag7
ag8
aa(lp123
g2
ag3
ag98
ag32
ag18
ag10
ag8
aa(lp124
g2
ag3
ag98
ag32
ag18
ag12
ag8
aa(lp125
g2
aS'maint_high'
p126
ag4
ag5
ag6
ag7
ag8
aa(lp127
g2
ag126
ag4
ag5
ag6
ag10
ag8
aa(lp128
g2
ag126
ag4
ag5
ag6
ag12
ag8
aa(lp129
g2
ag126
ag4
ag5
ag14
ag7
ag8
aa(lp130
g2
ag126
ag4
ag5
ag14
ag10
ag8
aa(lp131
g2
ag126
ag4
ag5
ag14
ag12
ag8
aa(lp132
g2
ag126
ag4
ag5
ag18
ag7
ag8
aa(lp133
g2
ag126
ag4
ag5
ag18
ag10
ag8
aa(lp134
g2
ag126
ag4
ag5
ag18
ag12
ag8
aa(lp135
g2
ag126
ag4
ag22
ag6
ag7
ag8
aa(lp136
g2
ag126
ag4
ag22
ag6
ag10
ag8
aa(lp137
g2
ag126
ag4
ag22
ag6
ag12
ag8
aa(lp138
g2
ag126
ag4
ag22
ag14
ag7
ag8
aa(lp139
g2
ag126
ag4
ag22
ag14
ag10
ag8
aa(lp140
g2
ag126
ag4
ag22
ag14
ag12
ag8
aa(lp141
g2
ag126
ag4
ag22
ag18
ag7
ag8
aa(lp142
g2
ag126
ag4
ag22
ag18
ag10
ag8
aa(lp143
g2
ag126
ag4
ag22
ag18
ag12
ag8
aa(lp144
g2
ag126
ag4
ag32
ag6
ag7
ag8
aa(lp145
g2
ag126
ag4
ag32
ag6
ag10
ag8
aa(lp146
g2
ag126
ag4
ag32
ag6
ag12
ag8
aa(lp147
g2
ag126
ag4
ag32
ag14
ag7
ag8
aa(lp148
g2
ag126
ag4
ag32
ag14
ag10
ag8
aa(lp149
g2
ag126
ag4
ag32
ag14
ag12
ag8
aa(lp150
g2
ag126
ag4
ag32
ag18
ag7
ag8
aa(lp151
g2
ag126
ag4
ag32
ag18
ag10
ag8
aa(lp152
g2
ag126
ag4
ag32
ag18
ag12
ag8
aa(lp153
g2
ag126
ag42
ag5
ag6
ag7
ag8
aa(lp154
g2
ag126
ag42
ag5
ag6
ag10
ag8
aa(lp155
g2
ag126
ag42
ag5
ag6
ag12
ag8
aa(lp156
g2
ag126
ag42
ag5
ag14
ag7
ag8
aa(lp157
g2
ag126
ag42
ag5
ag14
ag10
ag8
aa(lp158
g2
ag126
ag42
ag5
ag14
ag12
ag8
aa(lp159
g2
ag126
ag42
ag5
ag18
ag7
ag8
aa(lp160
g2
ag126
ag42
ag5
ag18
ag10
ag8
aa(lp161
g2
ag126
ag42
ag5
ag18
ag12
ag8
aa(lp162
g2
ag126
ag42
ag22
ag6
ag7
ag8
aa(lp163
g2
ag126
ag42
ag22
ag6
ag10
ag8
aa(lp164
g2
ag126
ag42
ag22
ag6
ag12
ag8
aa(lp165
g2
ag126
ag42
ag22
ag14
ag7
ag8
aa(lp166
g2
ag126
ag42
ag22
ag14
ag10
ag8
aa(lp167
g2
ag126
ag42
ag22
ag14
ag12
ag8
aa(lp168
g2
ag126
ag42
ag22
ag18
ag7
ag8
aa(lp169
g2
ag126
ag42
ag22
ag18
ag10
ag8
aa(lp170
g2
ag126
ag42
ag22
ag18
ag12
ag8
aa(lp171
g2
ag126
ag42
ag32
ag6
ag7
ag8
aa(lp172
g2
ag126
ag42
ag32
ag6
ag10
ag8
aa(lp173
g2
ag126
ag42
ag32
ag6
ag12
ag8
aa(lp174
g2
ag126
ag42
ag32
ag14
ag7
ag8
aa(lp175
g2
ag126
ag42
ag32
ag14
ag10
ag8
aa(lp176
g2
ag126
ag42
ag32
ag14
ag12
ag8
aa(lp177
g2
ag126
ag42
ag32
ag18
ag7
ag8
aa(lp178
g2
ag126
ag42
ag32
ag18
ag10
ag8
aa(lp179
g2
ag126
ag42
ag32
ag18
ag12
ag8
aa(lp180
g2
ag126
ag70
ag5
ag6
ag7
ag8
aa(lp181
g2
ag126
ag70
ag5
ag6
ag10
ag8
aa(lp182
g2
ag126
ag70
ag5
ag6
ag12
ag8
aa(lp183
g2
ag126
ag70
ag5
ag14
ag7
ag8
aa(lp184
g2
ag126
ag70
ag5
ag14
ag10
ag8
aa(lp185
g2
ag126
ag70
ag5
ag14
ag12
ag8
aa(lp186
g2
ag126
ag70
ag5
ag18
ag7
ag8
aa(lp187
g2
ag126
ag70
ag5
ag18
ag10
ag8
aa(lp188
g2
ag126
ag70
ag5
ag18
ag12
ag8
aa(lp189
g2
ag126
ag70
ag22
ag6
ag7
ag8
aa(lp190
g2
ag126
ag70
ag22
ag6
ag10
ag8
aa(lp191
g2
ag126
ag70
ag22
ag6
ag12
ag8
aa(lp192
g2
ag126
ag70
ag22
ag14
ag7
ag8
aa(lp193
g2
ag126
ag70
ag22
ag14
ag10
ag8
aa(lp194
g2
ag126
ag70
ag22
ag14
ag12
ag8
aa(lp195
g2
ag126
ag70
ag22
ag18
ag7
ag8
aa(lp196
g2
ag126
ag70
ag22
ag18
ag10
ag8
aa(lp197
g2
ag126
ag70
ag22
ag18
ag12
ag8
aa(lp198
g2
ag126
ag70
ag32
ag6
ag7
ag8
aa(lp199
g2
ag126
ag70
ag32
ag6
ag10
ag8
aa(lp200
g2
ag126
ag70
ag32
ag6
ag12
ag8
aa(lp201
g2
ag126
ag70
ag32
ag14
ag7
ag8
aa(lp202
g2
ag126
ag70
ag32
ag14
ag10
ag8
aa(lp203
g2
ag126
ag70
ag32
ag14
ag12
ag8
aa(lp204
g2
ag126
ag70
ag32
ag18
ag7
ag8
aa(lp205
g2
ag126
ag70
ag32
ag18
ag10
ag8
aa(lp206
g2
ag126
ag70
ag32
ag18
ag12
ag8
aa(lp207
g2
ag126
ag98
ag5
ag6
ag7
ag8
aa(lp208
g2
ag126
ag98
ag5
ag6
ag10
ag8
aa(lp209
g2
ag126
ag98
ag5
ag6
ag12
ag8
aa(lp210
g2
ag126
ag98
ag5
ag14
ag7
ag8
aa(lp211
g2
ag126
ag98
ag5
ag14
ag10
ag8
aa(lp212
g2
ag126
ag98
ag5
ag14
ag12
ag8
aa(lp213
g2
ag126
ag98
ag5
ag18
ag7
ag8
aa(lp214
g2
ag126
ag98
ag5
ag18
ag10
ag8
aa(lp215
g2
ag126
ag98
ag5
ag18
ag12
ag8
aa(lp216
g2
ag126
ag98
ag22
ag6
ag7
ag8
aa(lp217
g2
ag126
ag98
ag22
ag6
ag10
ag8
aa(lp218
g2
ag126
ag98
ag22
ag6
ag12
ag8
aa(lp219
g2
ag126
ag98
ag22
ag14
ag7
ag8
aa(lp220
g2
ag126
ag98
ag22
ag14
ag10
ag8
aa(lp221
g2
ag126
ag98
ag22
ag14
ag12
ag8
aa(lp222
g2
ag126
ag98
ag22
ag18
ag7
ag8
aa(lp223
g2
ag126
ag98
ag22
ag18
ag10
ag8
aa(lp224
g2
ag126
ag98
ag22
ag18
ag12
ag8
aa(lp225
g2
ag126
ag98
ag32
ag6
ag7
ag8
aa(lp226
g2
ag126
ag98
ag32
ag6
ag10
ag8
aa(lp227
g2
ag126
ag98
ag32
ag6
ag12
ag8
aa(lp228
g2
ag126
ag98
ag32
ag14
ag7
ag8
aa(lp229
g2
ag126
ag98
ag32
ag14
ag10
ag8
aa(lp230
g2
ag126
ag98
ag32
ag14
ag12
ag8
aa(lp231
g2
ag126
ag98
ag32
ag18
ag7
ag8
aa(lp232
g2
ag126
ag98
ag32
ag18
ag10
ag8
aa(lp233
g2
ag126
ag98
ag32
ag18
ag12
ag8
aa(lp234
g2
aS'maint_med'
p235
ag4
ag5
ag6
ag7
ag8
aa(lp236
g2
ag235
ag4
ag5
ag6
ag10
ag8
aa(lp237
g2
ag235
ag4
ag5
ag6
ag12
ag8
aa(lp238
g2
ag235
ag4
ag5
ag14
ag7
ag8
aa(lp239
g2
ag235
ag4
ag5
ag14
ag10
ag8
aa(lp240
g2
ag235
ag4
ag5
ag14
ag12
ag8
aa(lp241
g2
ag235
ag4
ag5
ag18
ag7
ag8
aa(lp242
g2
ag235
ag4
ag5
ag18
ag10
ag8
aa(lp243
g2
ag235
ag4
ag5
ag18
ag12
ag8
aa(lp244
g2
ag235
ag4
ag22
ag6
ag7
ag8
aa(lp245
g2
ag235
ag4
ag22
ag6
ag10
ag8
aa(lp246
g2
ag235
ag4
ag22
ag6
ag12
aS'class_acc'
p247
aa(lp248
g2
ag235
ag4
ag22
ag14
ag7
ag8
aa(lp249
g2
ag235
ag4
ag22
ag14
ag10
ag8
aa(lp250
g2
ag235
ag4
ag22
ag14
ag12
ag247
aa(lp251
g2
ag235
ag4
ag22
ag18
ag7
ag8
aa(lp252
g2
ag235
ag4
ag22
ag18
ag10
ag247
aa(lp253
g2
ag235
ag4
ag22
ag18
ag12
ag247
aa(lp254
g2
ag235
ag4
ag32
ag6
ag7
ag8
aa(lp255
g2
ag235
ag4
ag32
ag6
ag10
ag8
aa(lp256
g2
ag235
ag4
ag32
ag6
ag12
ag8
aa(lp257
g2
ag235
ag4
ag32
ag14
ag7
ag8
aa(lp258
g2
ag235
ag4
ag32
ag14
ag10
ag8
aa(lp259
g2
ag235
ag4
ag32
ag14
ag12
ag247
aa(lp260
g2
ag235
ag4
ag32
ag18
ag7
ag8
aa(lp261
g2
ag235
ag4
ag32
ag18
ag10
ag247
aa(lp262
g2
ag235
ag4
ag32
ag18
ag12
ag247
aa(lp263
g2
ag235
ag42
ag5
ag6
ag7
ag8
aa(lp264
g2
ag235
ag42
ag5
ag6
ag10
ag8
aa(lp265
g2
ag235
ag42
ag5
ag6
ag12
ag8
aa(lp266
g2
ag235
ag42
ag5
ag14
ag7
ag8
aa(lp267
g2
ag235
ag42
ag5
ag14
ag10
ag8
aa(lp268
g2
ag235
ag42
ag5
ag14
ag12
ag8
aa(lp269
g2
ag235
ag42
ag5
ag18
ag7
ag8
aa(lp270
g2
ag235
ag42
ag5
ag18
ag10
ag8
aa(lp271
g2
ag235
ag42
ag5
ag18
ag12
ag8
aa(lp272
g2
ag235
ag42
ag22
ag6
ag7
ag8
aa(lp273
g2
ag235
ag42
ag22
ag6
ag10
ag8
aa(lp274
g2
ag235
ag42
ag22
ag6
ag12
ag247
aa(lp275
g2
ag235
ag42
ag22
ag14
ag7
ag8
aa(lp276
g2
ag235
ag42
ag22
ag14
ag10
ag8
aa(lp277
g2
ag235
ag42
ag22
ag14
ag12
ag247
aa(lp278
g2
ag235
ag42
ag22
ag18
ag7
ag8
aa(lp279
g2
ag235
ag42
ag22
ag18
ag10
ag247
aa(lp280
g2
ag235
ag42
ag22
ag18
ag12
ag247
aa(lp281
g2
ag235
ag42
ag32
ag6
ag7
ag8
aa(lp282
g2
ag235
ag42
ag32
ag6
ag10
ag8
aa(lp283
g2
ag235
ag42
ag32
ag6
ag12
ag247
aa(lp284
g2
ag235
ag42
ag32
ag14
ag7
ag8
aa(lp285
g2
ag235
ag42
ag32
ag14
ag10
ag247
aa(lp286
g2
ag235
ag42
ag32
ag14
ag12
ag247
aa(lp287
g2
ag235
ag42
ag32
ag18
ag7
ag8
aa(lp288
g2
ag235
ag42
ag32
ag18
ag10
ag247
aa(lp289
g2
ag235
ag42
ag32
ag18
ag12
ag247
aa(lp290
g2
ag235
ag70
ag5
ag6
ag7
ag8
aa(lp291
g2
ag235
ag70
ag5
ag6
ag10
ag8
aa(lp292
g2
ag235
ag70
ag5
ag6
ag12
ag8
aa(lp293
g2
ag235
ag70
ag5
ag14
ag7
ag8
aa(lp294
g2
ag235
ag70
ag5
ag14
ag10
ag8
aa(lp295
g2
ag235
ag70
ag5
ag14
ag12
ag8
aa(lp296
g2
ag235
ag70
ag5
ag18
ag7
ag8
aa(lp297
g2
ag235
ag70
ag5
ag18
ag10
ag8
aa(lp298
g2
ag235
ag70
ag5
ag18
ag12
ag8
aa(lp299
g2
ag235
ag70
ag22
ag6
ag7
ag8
aa(lp300
g2
ag235
ag70
ag22
ag6
ag10
ag8
aa(lp301
g2
ag235
ag70
ag22
ag6
ag12
ag247
aa(lp302
g2
ag235
ag70
ag22
ag14
ag7
ag8
aa(lp303
g2
ag235
ag70
ag22
ag14
ag10
ag247
aa(lp304
g2
ag235
ag70
ag22
ag14
ag12
ag247
aa(lp305
g2
ag235
ag70
ag22
ag18
ag7
ag8
aa(lp306
g2
ag235
ag70
ag22
ag18
ag10
ag247
aa(lp307
g2
ag235
ag70
ag22
ag18
ag12
ag247
aa(lp308
g2
ag235
ag70
ag32
ag6
ag7
ag8
aa(lp309
g2
ag235
ag70
ag32
ag6
ag10
ag8
aa(lp310
g2
ag235
ag70
ag32
ag6
ag12
ag247
aa(lp311
g2
ag235
ag70
ag32
ag14
ag7
ag8
aa(lp312
g2
ag235
ag70
ag32
ag14
ag10
ag247
aa(lp313
g2
ag235
ag70
ag32
ag14
ag12
ag247
aa(lp314
g2
ag235
ag70
ag32
ag18
ag7
ag8
aa(lp315
g2
ag235
ag70
ag32
ag18
ag10
ag247
aa(lp316
g2
ag235
ag70
ag32
ag18
ag12
ag247
aa(lp317
g2
ag235
ag98
ag5
ag6
ag7
ag8
aa(lp318
g2
ag235
ag98
ag5
ag6
ag10
ag8
aa(lp319
g2
ag235
ag98
ag5
ag6
ag12
ag8
aa(lp320
g2
ag235
ag98
ag5
ag14
ag7
ag8
aa(lp321
g2
ag235
ag98
ag5
ag14
ag10
ag8
aa(lp322
g2
ag235
ag98
ag5
ag14
ag12
ag8
aa(lp323
g2
ag235
ag98
ag5
ag18
ag7
ag8
aa(lp324
g2
ag235
ag98
ag5
ag18
ag10
ag8
aa(lp325
g2
ag235
ag98
ag5
ag18
ag12
ag8
aa(lp326
g2
ag235
ag98
ag22
ag6
ag7
ag8
aa(lp327
g2
ag235
ag98
ag22
ag6
ag10
ag8
aa(lp328
g2
ag235
ag98
ag22
ag6
ag12
ag247
aa(lp329
g2
ag235
ag98
ag22
ag14
ag7
ag8
aa(lp330
g2
ag235
ag98
ag22
ag14
ag10
ag247
aa(lp331
g2
ag235
ag98
ag22
ag14
ag12
ag247
aa(lp332
g2
ag235
ag98
ag22
ag18
ag7
ag8
aa(lp333
g2
ag235
ag98
ag22
ag18
ag10
ag247
aa(lp334
g2
ag235
ag98
ag22
ag18
ag12
ag247
aa(lp335
g2
ag235
ag98
ag32
ag6
ag7
ag8
aa(lp336
g2
ag235
ag98
ag32
ag6
ag10
ag8
aa(lp337
g2
ag235
ag98
ag32
ag6
ag12
ag247
aa(lp338
g2
ag235
ag98
ag32
ag14
ag7
ag8
aa(lp339
g2
ag235
ag98
ag32
ag14
ag10
ag247
aa(lp340
g2
ag235
ag98
ag32
ag14
ag12
ag247
aa(lp341
g2
ag235
ag98
ag32
ag18
ag7
ag8
aa(lp342
g2
ag235
ag98
ag32
ag18
ag10
ag247
aa(lp343
g2
ag235
ag98
ag32
ag18
ag12
ag247
aa(lp344
g2
aS'maint_low'
p345
ag4
ag5
ag6
ag7
ag8
aa(lp346
g2
ag345
ag4
ag5
ag6
ag10
ag8
aa(lp347
g2
ag345
ag4
ag5
ag6
ag12
ag8
aa(lp348
g2
ag345
ag4
ag5
ag14
ag7
ag8
aa(lp349
g2
ag345
ag4
ag5
ag14
ag10
ag8
aa(lp350
g2
ag345
ag4
ag5
ag14
ag12
ag8
aa(lp351
g2
ag345
ag4
ag5
ag18
ag7
ag8
aa(lp352
g2
ag345
ag4
ag5
ag18
ag10
ag8
aa(lp353
g2
ag345
ag4
ag5
ag18
ag12
ag8
aa(lp354
g2
ag345
ag4
ag22
ag6
ag7
ag8
aa(lp355
g2
ag345
ag4
ag22
ag6
ag10
ag8
aa(lp356
g2
ag345
ag4
ag22
ag6
ag12
ag247
aa(lp357
g2
ag345
ag4
ag22
ag14
ag7
ag8
aa(lp358
g2
ag345
ag4
ag22
ag14
ag10
ag8
aa(lp359
g2
ag345
ag4
ag22
ag14
ag12
ag247
aa(lp360
g2
ag345
ag4
ag22
ag18
ag7
ag8
aa(lp361
g2
ag345
ag4
ag22
ag18
ag10
ag247
aa(lp362
g2
ag345
ag4
ag22
ag18
ag12
ag247
aa(lp363
g2
ag345
ag4
ag32
ag6
ag7
ag8
aa(lp364
g2
ag345
ag4
ag32
ag6
ag10
ag8
aa(lp365
g2
ag345
ag4
ag32
ag6
ag12
ag8
aa(lp366
g2
ag345
ag4
ag32
ag14
ag7
ag8
aa(lp367
g2
ag345
ag4
ag32
ag14
ag10
ag8
aa(lp368
g2
ag345
ag4
ag32
ag14
ag12
ag247
aa(lp369
g2
ag345
ag4
ag32
ag18
ag7
ag8
aa(lp370
g2
ag345
ag4
ag32
ag18
ag10
ag247
aa(lp371
g2
ag345
ag4
ag32
ag18
ag12
ag247
aa(lp372
g2
ag345
ag42
ag5
ag6
ag7
ag8
aa(lp373
g2
ag345
ag42
ag5
ag6
ag10
ag8
aa(lp374
g2
ag345
ag42
ag5
ag6
ag12
ag8
aa(lp375
g2
ag345
ag42
ag5
ag14
ag7
ag8
aa(lp376
g2
ag345
ag42
ag5
ag14
ag10
ag8
aa(lp377
g2
ag345
ag42
ag5
ag14
ag12
ag8
aa(lp378
g2
ag345
ag42
ag5
ag18
ag7
ag8
aa(lp379
g2
ag345
ag42
ag5
ag18
ag10
ag8
aa(lp380
g2
ag345
ag42
ag5
ag18
ag12
ag8
aa(lp381
g2
ag345
ag42
ag22
ag6
ag7
ag8
aa(lp382
g2
ag345
ag42
ag22
ag6
ag10
ag8
aa(lp383
g2
ag345
ag42
ag22
ag6
ag12
ag247
aa(lp384
g2
ag345
ag42
ag22
ag14
ag7
ag8
aa(lp385
g2
ag345
ag42
ag22
ag14
ag10
ag8
aa(lp386
g2
ag345
ag42
ag22
ag14
ag12
ag247
aa(lp387
g2
ag345
ag42
ag22
ag18
ag7
ag8
aa(lp388
g2
ag345
ag42
ag22
ag18
ag10
ag247
aa(lp389
g2
ag345
ag42
ag22
ag18
ag12
ag247
aa(lp390
g2
ag345
ag42
ag32
ag6
ag7
ag8
aa(lp391
g2
ag345
ag42
ag32
ag6
ag10
ag8
aa(lp392
g2
ag345
ag42
ag32
ag6
ag12
ag247
aa(lp393
g2
ag345
ag42
ag32
ag14
ag7
ag8
aa(lp394
g2
ag345
ag42
ag32
ag14
ag10
ag247
aa(lp395
g2
ag345
ag42
ag32
ag14
ag12
ag247
aa(lp396
g2
ag345
ag42
ag32
ag18
ag7
ag8
aa(lp397
g2
ag345
ag42
ag32
ag18
ag10
ag247
aa(lp398
g2
ag345
ag42
ag32
ag18
ag12
ag247
aa(lp399
g2
ag345
ag70
ag5
ag6
ag7
ag8
aa(lp400
g2
ag345
ag70
ag5
ag6
ag10
ag8
aa(lp401
g2
ag345
ag70
ag5
ag6
ag12
ag8
aa(lp402
g2
ag345
ag70
ag5
ag14
ag7
ag8
aa(lp403
g2
ag345
ag70
ag5
ag14
ag10
ag8
aa(lp404
g2
ag345
ag70
ag5
ag14
ag12
ag8
aa(lp405
g2
ag345
ag70
ag5
ag18
ag7
ag8
aa(lp406
g2
ag345
ag70
ag5
ag18
ag10
ag8
aa(lp407
g2
ag345
ag70
ag5
ag18
ag12
ag8
aa(lp408
g2
ag345
ag70
ag22
ag6
ag7
ag8
aa(lp409
g2
ag345
ag70
ag22
ag6
ag10
ag8
aa(lp410
g2
ag345
ag70
ag22
ag6
ag12
ag247
aa(lp411
g2
ag345
ag70
ag22
ag14
ag7
ag8
aa(lp412
g2
ag345
ag70
ag22
ag14
ag10
ag247
aa(lp413
g2
ag345
ag70
ag22
ag14
ag12
ag247
aa(lp414
g2
ag345
ag70
ag22
ag18
ag7
ag8
aa(lp415
g2
ag345
ag70
ag22
ag18
ag10
ag247
aa(lp416
g2
ag345
ag70
ag22
ag18
ag12
ag247
aa(lp417
g2
ag345
ag70
ag32
ag6
ag7
ag8
aa(lp418
g2
ag345
ag70
ag32
ag6
ag10
ag8
aa(lp419
g2
ag345
ag70
ag32
ag6
ag12
ag247
aa(lp420
g2
ag345
ag70
ag32
ag14
ag7
ag8
aa(lp421
g2
ag345
ag70
ag32
ag14
ag10
ag247
aa(lp422
g2
ag345
ag70
ag32
ag14
ag12
ag247
aa(lp423
g2
ag345
ag70
ag32
ag18
ag7
ag8
aa(lp424
g2
ag345
ag70
ag32
ag18
ag10
ag247
aa(lp425
g2
ag345
ag70
ag32
ag18
ag12
ag247
aa(lp426
g2
ag345
ag98
ag5
ag6
ag7
ag8
aa(lp427
g2
ag345
ag98
ag5
ag6
ag10
ag8
aa(lp428
g2
ag345
ag98
ag5
ag6
ag12
ag8
aa(lp429
g2
ag345
ag98
ag5
ag14
ag7
ag8
aa(lp430
g2
ag345
ag98
ag5
ag14
ag10
ag8
aa(lp431
g2
ag345
ag98
ag5
ag14
ag12
ag8
aa(lp432
g2
ag345
ag98
ag5
ag18
ag7
ag8
aa(lp433
g2
ag345
ag98
ag5
ag18
ag10
ag8
aa(lp434
g2
ag345
ag98
ag5
ag18
ag12
ag8
aa(lp435
g2
ag345
ag98
ag22
ag6
ag7
ag8
aa(lp436
g2
ag345
ag98
ag22
ag6
ag10
ag8
aa(lp437
g2
ag345
ag98
ag22
ag6
ag12
ag247
aa(lp438
g2
ag345
ag98
ag22
ag14
ag7
ag8
aa(lp439
g2
ag345
ag98
ag22
ag14
ag10
ag247
aa(lp440
g2
ag345
ag98
ag22
ag14
ag12
ag247
aa(lp441
g2
ag345
ag98
ag22
ag18
ag7
ag8
aa(lp442
g2
ag345
ag98
ag22
ag18
ag10
ag247
aa(lp443
g2
ag345
ag98
ag22
ag18
ag12
ag247
aa(lp444
g2
ag345
ag98
ag32
ag6
ag7
ag8
aa(lp445
g2
ag345
ag98
ag32
ag6
ag10
ag8
aa(lp446
g2
ag345
ag98
ag32
ag6
ag12
ag247
aa(lp447
g2
ag345
ag98
ag32
ag14
ag7
ag8
aa(lp448
g2
ag345
ag98
ag32
ag14
ag10
ag247
aa(lp449
g2
ag345
ag98
ag32
ag14
ag12
ag247
aa(lp450
g2
ag345
ag98
ag32
ag18
ag7
ag8
aa(lp451
g2
ag345
ag98
ag32
ag18
ag10
ag247
aa(lp452
g2
ag345
ag98
ag32
ag18
ag12
ag247
aa(lp453
S'buying_high'
p454
ag3
ag4
ag5
ag6
ag7
ag8
aa(lp455
g454
ag3
ag4
ag5
ag6
ag10
ag8
aa(lp456
g454
ag3
ag4
ag5
ag6
ag12
ag8
aa(lp457
g454
ag3
ag4
ag5
ag14
ag7
ag8
aa(lp458
g454
ag3
ag4
ag5
ag14
ag10
ag8
aa(lp459
g454
ag3
ag4
ag5
ag14
ag12
ag8
aa(lp460
g454
ag3
ag4
ag5
ag18
ag7
ag8
aa(lp461
g454
ag3
ag4
ag5
ag18
ag10
ag8
aa(lp462
g454
ag3
ag4
ag5
ag18
ag12
ag8
aa(lp463
g454
ag3
ag4
ag22
ag6
ag7
ag8
aa(lp464
g454
ag3
ag4
ag22
ag6
ag10
ag8
aa(lp465
g454
ag3
ag4
ag22
ag6
ag12
ag8
aa(lp466
g454
ag3
ag4
ag22
ag14
ag7
ag8
aa(lp467
g454
ag3
ag4
ag22
ag14
ag10
ag8
aa(lp468
g454
ag3
ag4
ag22
ag14
ag12
ag8
aa(lp469
g454
ag3
ag4
ag22
ag18
ag7
ag8
aa(lp470
g454
ag3
ag4
ag22
ag18
ag10
ag8
aa(lp471
g454
ag3
ag4
ag22
ag18
ag12
ag8
aa(lp472
g454
ag3
ag4
ag32
ag6
ag7
ag8
aa(lp473
g454
ag3
ag4
ag32
ag6
ag10
ag8
aa(lp474
g454
ag3
ag4
ag32
ag6
ag12
ag8
aa(lp475
g454
ag3
ag4
ag32
ag14
ag7
ag8
aa(lp476
g454
ag3
ag4
ag32
ag14
ag10
ag8
aa(lp477
g454
ag3
ag4
ag32
ag14
ag12
ag8
aa(lp478
g454
ag3
ag4
ag32
ag18
ag7
ag8
aa(lp479
g454
ag3
ag4
ag32
ag18
ag10
ag8
aa(lp480
g454
ag3
ag4
ag32
ag18
ag12
ag8
aa(lp481
g454
ag3
ag42
ag5
ag6
ag7
ag8
aa(lp482
g454
ag3
ag42
ag5
ag6
ag10
ag8
aa(lp483
g454
ag3
ag42
ag5
ag6
ag12
ag8
aa(lp484
g454
ag3
ag42
ag5
ag14
ag7
ag8
aa(lp485
g454
ag3
ag42
ag5
ag14
ag10
ag8
aa(lp486
g454
ag3
ag42
ag5
ag14
ag12
ag8
aa(lp487
g454
ag3
ag42
ag5
ag18
ag7
ag8
aa(lp488
g454
ag3
ag42
ag5
ag18
ag10
ag8
aa(lp489
g454
ag3
ag42
ag5
ag18
ag12
ag8
aa(lp490
g454
ag3
ag42
ag22
ag6
ag7
ag8
aa(lp491
g454
ag3
ag42
ag22
ag6
ag10
ag8
aa(lp492
g454
ag3
ag42
ag22
ag6
ag12
ag8
aa(lp493
g454
ag3
ag42
ag22
ag14
ag7
ag8
aa(lp494
g454
ag3
ag42
ag22
ag14
ag10
ag8
aa(lp495
g454
ag3
ag42
ag22
ag14
ag12
ag8
aa(lp496
g454
ag3
ag42
ag22
ag18
ag7
ag8
aa(lp497
g454
ag3
ag42
ag22
ag18
ag10
ag8
aa(lp498
g454
ag3
ag42
ag22
ag18
ag12
ag8
aa(lp499
g454
ag3
ag42
ag32
ag6
ag7
ag8
aa(lp500
g454
ag3
ag42
ag32
ag6
ag10
ag8
aa(lp501
g454
ag3
ag42
ag32
ag6
ag12
ag8
aa(lp502
g454
ag3
ag42
ag32
ag14
ag7
ag8
aa(lp503
g454
ag3
ag42
ag32
ag14
ag10
ag8
aa(lp504
g454
ag3
ag42
ag32
ag14
ag12
ag8
aa(lp505
g454
ag3
ag42
ag32
ag18
ag7
ag8
aa(lp506
g454
ag3
ag42
ag32
ag18
ag10
ag8
aa(lp507
g454
ag3
ag42
ag32
ag18
ag12
ag8
aa(lp508
g454
ag3
ag70
ag5
ag6
ag7
ag8
aa(lp509
g454
ag3
ag70
ag5
ag6
ag10
ag8
aa(lp510
g454
ag3
ag70
ag5
ag6
ag12
ag8
aa(lp511
g454
ag3
ag70
ag5
ag14
ag7
ag8
aa(lp512
g454
ag3
ag70
ag5
ag14
ag10
ag8
aa(lp513
g454
ag3
ag70
ag5
ag14
ag12
ag8
aa(lp514
g454
ag3
ag70
ag5
ag18
ag7
ag8
aa(lp515
g454
ag3
ag70
ag5
ag18
ag10
ag8
aa(lp516
g454
ag3
ag70
ag5
ag18
ag12
ag8
aa(lp517
g454
ag3
ag70
ag22
ag6
ag7
ag8
aa(lp518
g454
ag3
ag70
ag22
ag6
ag10
ag8
aa(lp519
g454
ag3
ag70
ag22
ag6
ag12
ag8
aa(lp520
g454
ag3
ag70
ag22
ag14
ag7
ag8
aa(lp521
g454
ag3
ag70
ag22
ag14
ag10
ag8
aa(lp522
g454
ag3
ag70
ag22
ag14
ag12
ag8
aa(lp523
g454
ag3
ag70
ag22
ag18
ag7
ag8
aa(lp524
g454
ag3
ag70
ag22
ag18
ag10
ag8
aa(lp525
g454
ag3
ag70
ag22
ag18
ag12
ag8
aa(lp526
g454
ag3
ag70
ag32
ag6
ag7
ag8
aa(lp527
g454
ag3
ag70
ag32
ag6
ag10
ag8
aa(lp528
g454
ag3
ag70
ag32
ag6
ag12
ag8
aa(lp529
g454
ag3
ag70
ag32
ag14
ag7
ag8
aa(lp530
g454
ag3
ag70
ag32
ag14
ag10
ag8
aa(lp531
g454
ag3
ag70
ag32
ag14
ag12
ag8
aa(lp532
g454
ag3
ag70
ag32
ag18
ag7
ag8
aa(lp533
g454
ag3
ag70
ag32
ag18
ag10
ag8
aa(lp534
g454
ag3
ag70
ag32
ag18
ag12
ag8
aa(lp535
g454
ag3
ag98
ag5
ag6
ag7
ag8
aa(lp536
g454
ag3
ag98
ag5
ag6
ag10
ag8
aa(lp537
g454
ag3
ag98
ag5
ag6
ag12
ag8
aa(lp538
g454
ag3
ag98
ag5
ag14
ag7
ag8
aa(lp539
g454
ag3
ag98
ag5
ag14
ag10
ag8
aa(lp540
g454
ag3
ag98
ag5
ag14
ag12
ag8
aa(lp541
g454
ag3
ag98
ag5
ag18
ag7
ag8
aa(lp542
g454
ag3
ag98
ag5
ag18
ag10
ag8
aa(lp543
g454
ag3
ag98
ag5
ag18
ag12
ag8
aa(lp544
g454
ag3
ag98
ag22
ag6
ag7
ag8
aa(lp545
g454
ag3
ag98
ag22
ag6
ag10
ag8
aa(lp546
g454
ag3
ag98
ag22
ag6
ag12
ag8
aa(lp547
g454
ag3
ag98
ag22
ag14
ag7
ag8
aa(lp548
g454
ag3
ag98
ag22
ag14
ag10
ag8
aa(lp549
g454
ag3
ag98
ag22
ag14
ag12
ag8
aa(lp550
g454
ag3
ag98
ag22
ag18
ag7
ag8
aa(lp551
g454
ag3
ag98
ag22
ag18
ag10
ag8
aa(lp552
g454
ag3
ag98
ag22
ag18
ag12
ag8
aa(lp553
g454
ag3
ag98
ag32
ag6
ag7
ag8
aa(lp554
g454
ag3
ag98
ag32
ag6
ag10
ag8
aa(lp555
g454
ag3
ag98
ag32
ag6
ag12
ag8
aa(lp556
g454
ag3
ag98
ag32
ag14
ag7
ag8
aa(lp557
g454
ag3
ag98
ag32
ag14
ag10
ag8
aa(lp558
g454
ag3
ag98
ag32
ag14
ag12
ag8
aa(lp559
g454
ag3
ag98
ag32
ag18
ag7
ag8
aa(lp560
g454
ag3
ag98
ag32
ag18
ag10
ag8
aa(lp561
g454
ag3
ag98
ag32
ag18
ag12
ag8
aa(lp562
g454
ag126
ag4
ag5
ag6
ag7
ag8
aa(lp563
g454
ag126
ag4
ag5
ag6
ag10
ag8
aa(lp564
g454
ag126
ag4
ag5
ag6
ag12
ag8
aa(lp565
g454
ag126
ag4
ag5
ag14
ag7
ag8
aa(lp566
g454
ag126
ag4
ag5
ag14
ag10
ag8
aa(lp567
g454
ag126
ag4
ag5
ag14
ag12
ag8
aa(lp568
g454
ag126
ag4
ag5
ag18
ag7
ag8
aa(lp569
g454
ag126
ag4
ag5
ag18
ag10
ag8
aa(lp570
g454
ag126
ag4
ag5
ag18
ag12
ag8
aa(lp571
g454
ag126
ag4
ag22
ag6
ag7
ag8
aa(lp572
g454
ag126
ag4
ag22
ag6
ag10
ag8
aa(lp573
g454
ag126
ag4
ag22
ag6
ag12
ag247
aa(lp574
g454
ag126
ag4
ag22
ag14
ag7
ag8
aa(lp575
g454
ag126
ag4
ag22
ag14
ag10
ag8
aa(lp576
g454
ag126
ag4
ag22
ag14
ag12
ag247
aa(lp577
g454
ag126
ag4
ag22
ag18
ag7
ag8
aa(lp578
g454
ag126
ag4
ag22
ag18
ag10
ag247
aa(lp579
g454
ag126
ag4
ag22
ag18
ag12
ag247
aa(lp580
g454
ag126
ag4
ag32
ag6
ag7
ag8
aa(lp581
g454
ag126
ag4
ag32
ag6
ag10
ag8
aa(lp582
g454
ag126
ag4
ag32
ag6
ag12
ag8
aa(lp583
g454
ag126
ag4
ag32
ag14
ag7
ag8
aa(lp584
g454
ag126
ag4
ag32
ag14
ag10
ag8
aa(lp585
g454
ag126
ag4
ag32
ag14
ag12
ag247
aa(lp586
g454
ag126
ag4
ag32
ag18
ag7
ag8
aa(lp587
g454
ag126
ag4
ag32
ag18
ag10
ag247
aa(lp588
g454
ag126
ag4
ag32
ag18
ag12
ag247
aa(lp589
g454
ag126
ag42
ag5
ag6
ag7
ag8
aa(lp590
g454
ag126
ag42
ag5
ag6
ag10
ag8
aa(lp591
g454
ag126
ag42
ag5
ag6
ag12
ag8
aa(lp592
g454
ag126
ag42
ag5
ag14
ag7
ag8
aa(lp593
g454
ag126
ag42
ag5
ag14
ag10
ag8
aa(lp594
g454
ag126
ag42
ag5
ag14
ag12
ag8
aa(lp595
g454
ag126
ag42
ag5
ag18
ag7
ag8
aa(lp596
g454
ag126
ag42
ag5
ag18
ag10
ag8
aa(lp597
g454
ag126
ag42
ag5
ag18
ag12
ag8
aa(lp598
g454
ag126
ag42
ag22
ag6
ag7
ag8
aa(lp599
g454
ag126
ag42
ag22
ag6
ag10
ag8
aa(lp600
g454
ag126
ag42
ag22
ag6
ag12
ag247
aa(lp601
g454
ag126
ag42
ag22
ag14
ag7
ag8
aa(lp602
g454
ag126
ag42
ag22
ag14
ag10
ag8
aa(lp603
g454
ag126
ag42
ag22
ag14
ag12
ag247
aa(lp604
g454
ag126
ag42
ag22
ag18
ag7
ag8
aa(lp605
g454
ag126
ag42
ag22
ag18
ag10
ag247
aa(lp606
g454
ag126
ag42
ag22
ag18
ag12
ag247
aa(lp607
g454
ag126
ag42
ag32
ag6
ag7
ag8
aa(lp608
g454
ag126
ag42
ag32
ag6
ag10
ag8
aa(lp609
g454
ag126
ag42
ag32
ag6
ag12
ag247
aa(lp610
g454
ag126
ag42
ag32
ag14
ag7
ag8
aa(lp611
g454
ag126
ag42
ag32
ag14
ag10
ag247
aa(lp612
g454
ag126
ag42
ag32
ag14
ag12
ag247
aa(lp613
g454
ag126
ag42
ag32
ag18
ag7
ag8
aa(lp614
g454
ag126
ag42
ag32
ag18
ag10
ag247
aa(lp615
g454
ag126
ag42
ag32
ag18
ag12
ag247
aa(lp616
g454
ag126
ag70
ag5
ag6
ag7
ag8
aa(lp617
g454
ag126
ag70
ag5
ag6
ag10
ag8
aa(lp618
g454
ag126
ag70
ag5
ag6
ag12
ag8
aa(lp619
g454
ag126
ag70
ag5
ag14
ag7
ag8
aa(lp620
g454
ag126
ag70
ag5
ag14
ag10
ag8
aa(lp621
g454
ag126
ag70
ag5
ag14
ag12
ag8
aa(lp622
g454
ag126
ag70
ag5
ag18
ag7
ag8
aa(lp623
g454
ag126
ag70
ag5
ag18
ag10
ag8
aa(lp624
g454
ag126
ag70
ag5
ag18
ag12
ag8
aa(lp625
g454
ag126
ag70
ag22
ag6
ag7
ag8
aa(lp626
g454
ag126
ag70
ag22
ag6
ag10
ag8
aa(lp627
g454
ag126
ag70
ag22
ag6
ag12
ag247
aa(lp628
g454
ag126
ag70
ag22
ag14
ag7
ag8
aa(lp629
g454
ag126
ag70
ag22
ag14
ag10
ag247
aa(lp630
g454
ag126
ag70
ag22
ag14
ag12
ag247
aa(lp631
g454
ag126
ag70
ag22
ag18
ag7
ag8
aa(lp632
g454
ag126
ag70
ag22
ag18
ag10
ag247
aa(lp633
g454
ag126
ag70
ag22
ag18
ag12
ag247
aa(lp634
g454
ag126
ag70
ag32
ag6
ag7
ag8
aa(lp635
g454
ag126
ag70
ag32
ag6
ag10
ag8
aa(lp636
g454
ag126
ag70
ag32
ag6
ag12
ag247
aa(lp637
g454
ag126
ag70
ag32
ag14
ag7
ag8
aa(lp638
g454
ag126
ag70
ag32
ag14
ag10
ag247
aa(lp639
g454
ag126
ag70
ag32
ag14
ag12
ag247
aa(lp640
g454
ag126
ag70
ag32
ag18
ag7
ag8
aa(lp641
g454
ag126
ag70
ag32
ag18
ag10
ag247
aa(lp642
g454
ag126
ag70
ag32
ag18
ag12
ag247
aa(lp643
g454
ag126
ag98
ag5
ag6
ag7
ag8
aa(lp644
g454
ag126
ag98
ag5
ag6
ag10
ag8
aa(lp645
g454
ag126
ag98
ag5
ag6
ag12
ag8
aa(lp646
g454
ag126
ag98
ag5
ag14
ag7
ag8
aa(lp647
g454
ag126
ag98
ag5
ag14
ag10
ag8
aa(lp648
g454
ag126
ag98
ag5
ag14
ag12
ag8
aa(lp649
g454
ag126
ag98
ag5
ag18
ag7
ag8
aa(lp650
g454
ag126
ag98
ag5
ag18
ag10
ag8
aa(lp651
g454
ag126
ag98
ag5
ag18
ag12
ag8
aa(lp652
g454
ag126
ag98
ag22
ag6
ag7
ag8
aa(lp653
g454
ag126
ag98
ag22
ag6
ag10
ag8
aa(lp654
g454
ag126
ag98
ag22
ag6
ag12
ag247
aa(lp655
g454
ag126
ag98
ag22
ag14
ag7
ag8
aa(lp656
g454
ag126
ag98
ag22
ag14
ag10
ag247
aa(lp657
g454
ag126
ag98
ag22
ag14
ag12
ag247
aa(lp658
g454
ag126
ag98
ag22
ag18
ag7
ag8
aa(lp659
g454
ag126
ag98
ag22
ag18
ag10
ag247
aa(lp660
g454
ag126
ag98
ag22
ag18
ag12
ag247
aa(lp661
g454
ag126
ag98
ag32
ag6
ag7
ag8
aa(lp662
g454
ag126
ag98
ag32
ag6
ag10
ag8
aa(lp663
g454
ag126
ag98
ag32
ag6
ag12
ag247
aa(lp664
g454
ag126
ag98
ag32
ag14
ag7
ag8
aa(lp665
g454
ag126
ag98
ag32
ag14
ag10
ag247
aa(lp666
g454
ag126
ag98
ag32
ag14
ag12
ag247
aa(lp667
g454
ag126
ag98
ag32
ag18
ag7
ag8
aa(lp668
g454
ag126
ag98
ag32
ag18
ag10
ag247
aa(lp669
g454
ag126
ag98
ag32
ag18
ag12
ag247
aa(lp670
g454
ag235
ag4
ag5
ag6
ag7
ag8
aa(lp671
g454
ag235
ag4
ag5
ag6
ag10
ag8
aa(lp672
g454
ag235
ag4
ag5
ag6
ag12
ag8
aa(lp673
g454
ag235
ag4
ag5
ag14
ag7
ag8
aa(lp674
g454
ag235
ag4
ag5
ag14
ag10
ag8
aa(lp675
g454
ag235
ag4
ag5
ag14
ag12
ag8
aa(lp676
g454
ag235
ag4
ag5
ag18
ag7
ag8
aa(lp677
g454
ag235
ag4
ag5
ag18
ag10
ag8
aa(lp678
g454
ag235
ag4
ag5
ag18
ag12
ag8
aa(lp679
g454
ag235
ag4
ag22
ag6
ag7
ag8
aa(lp680
g454
ag235
ag4
ag22
ag6
ag10
ag8
aa(lp681
g454
ag235
ag4
ag22
ag6
ag12
ag247
aa(lp682
g454
ag235
ag4
ag22
ag14
ag7
ag8
aa(lp683
g454
ag235
ag4
ag22
ag14
ag10
ag8
aa(lp684
g454
ag235
ag4
ag22
ag14
ag12
ag247
aa(lp685
g454
ag235
ag4
ag22
ag18
ag7
ag8
aa(lp686
g454
ag235
ag4
ag22
ag18
ag10
ag247
aa(lp687
g454
ag235
ag4
ag22
ag18
ag12
ag247
aa(lp688
g454
ag235
ag4
ag32
ag6
ag7
ag8
aa(lp689
g454
ag235
ag4
ag32
ag6
ag10
ag8
aa(lp690
g454
ag235
ag4
ag32
ag6
ag12
ag8
aa(lp691
g454
ag235
ag4
ag32
ag14
ag7
ag8
aa(lp692
g454
ag235
ag4
ag32
ag14
ag10
ag8
aa(lp693
g454
ag235
ag4
ag32
ag14
ag12
ag247
aa(lp694
g454
ag235
ag4
ag32
ag18
ag7
ag8
aa(lp695
g454
ag235
ag4
ag32
ag18
ag10
ag247
aa(lp696
g454
ag235
ag4
ag32
ag18
ag12
ag247
aa(lp697
g454
ag235
ag42
ag5
ag6
ag7
ag8
aa(lp698
g454
ag235
ag42
ag5
ag6
ag10
ag8
aa(lp699
g454
ag235
ag42
ag5
ag6
ag12
ag8
aa(lp700
g454
ag235
ag42
ag5
ag14
ag7
ag8
aa(lp701
g454
ag235
ag42
ag5
ag14
ag10
ag8
aa(lp702
g454
ag235
ag42
ag5
ag14
ag12
ag8
aa(lp703
g454
ag235
ag42
ag5
ag18
ag7
ag8
aa(lp704
g454
ag235
ag42
ag5
ag18
ag10
ag8
aa(lp705
g454
ag235
ag42
ag5
ag18
ag12
ag8
aa(lp706
g454
ag235
ag42
ag22
ag6
ag7
ag8
aa(lp707
g454
ag235
ag42
ag22
ag6
ag10
ag8
aa(lp708
g454
ag235
ag42
ag22
ag6
ag12
ag247
aa(lp709
g454
ag235
ag42
ag22
ag14
ag7
ag8
aa(lp710
g454
ag235
ag42
ag22
ag14
ag10
ag8
aa(lp711
g454
ag235
ag42
ag22
ag14
ag12
ag247
aa(lp712
g454
ag235
ag42
ag22
ag18
ag7
ag8
aa(lp713
g454
ag235
ag42
ag22
ag18
ag10
ag247
aa(lp714
g454
ag235
ag42
ag22
ag18
ag12
ag247
aa(lp715
g454
ag235
ag42
ag32
ag6
ag7
ag8
aa(lp716
g454
ag235
ag42
ag32
ag6
ag10
ag8
aa(lp717
g454
ag235
ag42
ag32
ag6
ag12
ag247
aa(lp718
g454
ag235
ag42
ag32
ag14
ag7
ag8
aa(lp719
g454
ag235
ag42
ag32
ag14
ag10
ag247
aa(lp720
g454
ag235
ag42
ag32
ag14
ag12
ag247
aa(lp721
g454
ag235
ag42
ag32
ag18
ag7
ag8
aa(lp722
g454
ag235
ag42
ag32
ag18
ag10
ag247
aa(lp723
g454
ag235
ag42
ag32
ag18
ag12
ag247
aa(lp724
g454
ag235
ag70
ag5
ag6
ag7
ag8
aa(lp725
g454
ag235
ag70
ag5
ag6
ag10
ag8
aa(lp726
g454
ag235
ag70
ag5
ag6
ag12
ag8
aa(lp727
g454
ag235
ag70
ag5
ag14
ag7
ag8
aa(lp728
g454
ag235
ag70
ag5
ag14
ag10
ag8
aa(lp729
g454
ag235
ag70
ag5
ag14
ag12
ag8
aa(lp730
g454
ag235
ag70
ag5
ag18
ag7
ag8
aa(lp731
g454
ag235
ag70
ag5
ag18
ag10
ag8
aa(lp732
g454
ag235
ag70
ag5
ag18
ag12
ag8
aa(lp733
g454
ag235
ag70
ag22
ag6
ag7
ag8
aa(lp734
g454
ag235
ag70
ag22
ag6
ag10
ag8
aa(lp735
g454
ag235
ag70
ag22
ag6
ag12
ag247
aa(lp736
g454
ag235
ag70
ag22
ag14
ag7
ag8
aa(lp737
g454
ag235
ag70
ag22
ag14
ag10
ag247
aa(lp738
g454
ag235
ag70
ag22
ag14
ag12
ag247
aa(lp739
g454
ag235
ag70
ag22
ag18
ag7
ag8
aa(lp740
g454
ag235
ag70
ag22
ag18
ag10
ag247
aa(lp741
g454
ag235
ag70
ag22
ag18
ag12
ag247
aa(lp742
g454
ag235
ag70
ag32
ag6
ag7
ag8
aa(lp743
g454
ag235
ag70
ag32
ag6
ag10
ag8
aa(lp744
g454
ag235
ag70
ag32
ag6
ag12
ag247
aa(lp745
g454
ag235
ag70
ag32
ag14
ag7
ag8
aa(lp746
g454
ag235
ag70
ag32
ag14
ag10
ag247
aa(lp747
g454
ag235
ag70
ag32
ag14
ag12
ag247
aa(lp748
g454
ag235
ag70
ag32
ag18
ag7
ag8
aa(lp749
g454
ag235
ag70
ag32
ag18
ag10
ag247
aa(lp750
g454
ag235
ag70
ag32
ag18
ag12
ag247
aa(lp751
g454
ag235
ag98
ag5
ag6
ag7
ag8
aa(lp752
g454
ag235
ag98
ag5
ag6
ag10
ag8
aa(lp753
g454
ag235
ag98
ag5
ag6
ag12
ag8
aa(lp754
g454
ag235
ag98
ag5
ag14
ag7
ag8
aa(lp755
g454
ag235
ag98
ag5
ag14
ag10
ag8
aa(lp756
g454
ag235
ag98
ag5
ag14
ag12
ag8
aa(lp757
g454
ag235
ag98
ag5
ag18
ag7
ag8
aa(lp758
g454
ag235
ag98
ag5
ag18
ag10
ag8
aa(lp759
g454
ag235
ag98
ag5
ag18
ag12
ag8
aa(lp760
g454
ag235
ag98
ag22
ag6
ag7
ag8
aa(lp761
g454
ag235
ag98
ag22
ag6
ag10
ag8
aa(lp762
g454
ag235
ag98
ag22
ag6
ag12
ag247
aa(lp763
g454
ag235
ag98
ag22
ag14
ag7
ag8
aa(lp764
g454
ag235
ag98
ag22
ag14
ag10
ag247
aa(lp765
g454
ag235
ag98
ag22
ag14
ag12
ag247
aa(lp766
g454
ag235
ag98
ag22
ag18
ag7
ag8
aa(lp767
g454
ag235
ag98
ag22
ag18
ag10
ag247
aa(lp768
g454
ag235
ag98
ag22
ag18
ag12
ag247
aa(lp769
g454
ag235
ag98
ag32
ag6
ag7
ag8
aa(lp770
g454
ag235
ag98
ag32
ag6
ag10
ag8
aa(lp771
g454
ag235
ag98
ag32
ag6
ag12
ag247
aa(lp772
g454
ag235
ag98
ag32
ag14
ag7
ag8
aa(lp773
g454
ag235
ag98
ag32
ag14
ag10
ag247
aa(lp774
g454
ag235
ag98
ag32
ag14
ag12
ag247
aa(lp775
g454
ag235
ag98
ag32
ag18
ag7
ag8
aa(lp776
g454
ag235
ag98
ag32
ag18
ag10
ag247
aa(lp777
g454
ag235
ag98
ag32
ag18
ag12
ag247
aa(lp778
g454
ag345
ag4
ag5
ag6
ag7
ag8
aa(lp779
g454
ag345
ag4
ag5
ag6
ag10
ag8
aa(lp780
g454
ag345
ag4
ag5
ag6
ag12
ag8
aa(lp781
g454
ag345
ag4
ag5
ag14
ag7
ag8
aa(lp782
g454
ag345
ag4
ag5
ag14
ag10
ag8
aa(lp783
g454
ag345
ag4
ag5
ag14
ag12
ag8
aa(lp784
g454
ag345
ag4
ag5
ag18
ag7
ag8
aa(lp785
g454
ag345
ag4
ag5
ag18
ag10
ag8
aa(lp786
g454
ag345
ag4
ag5
ag18
ag12
ag8
aa(lp787
g454
ag345
ag4
ag22
ag6
ag7
ag8
aa(lp788
g454
ag345
ag4
ag22
ag6
ag10
ag8
aa(lp789
g454
ag345
ag4
ag22
ag6
ag12
ag247
aa(lp790
g454
ag345
ag4
ag22
ag14
ag7
ag8
aa(lp791
g454
ag345
ag4
ag22
ag14
ag10
ag8
aa(lp792
g454
ag345
ag4
ag22
ag14
ag12
ag247
aa(lp793
g454
ag345
ag4
ag22
ag18
ag7
ag8
aa(lp794
g454
ag345
ag4
ag22
ag18
ag10
ag247
aa(lp795
g454
ag345
ag4
ag22
ag18
ag12
ag247
aa(lp796
g454
ag345
ag4
ag32
ag6
ag7
ag8
aa(lp797
g454
ag345
ag4
ag32
ag6
ag10
ag8
aa(lp798
g454
ag345
ag4
ag32
ag6
ag12
ag8
aa(lp799
g454
ag345
ag4
ag32
ag14
ag7
ag8
aa(lp800
g454
ag345
ag4
ag32
ag14
ag10
ag8
aa(lp801
g454
ag345
ag4
ag32
ag14
ag12
ag247
aa(lp802
g454
ag345
ag4
ag32
ag18
ag7
ag8
aa(lp803
g454
ag345
ag4
ag32
ag18
ag10
ag247
aa(lp804
g454
ag345
ag4
ag32
ag18
ag12
ag247
aa(lp805
g454
ag345
ag42
ag5
ag6
ag7
ag8
aa(lp806
g454
ag345
ag42
ag5
ag6
ag10
ag8
aa(lp807
g454
ag345
ag42
ag5
ag6
ag12
ag8
aa(lp808
g454
ag345
ag42
ag5
ag14
ag7
ag8
aa(lp809
g454
ag345
ag42
ag5
ag14
ag10
ag8
aa(lp810
g454
ag345
ag42
ag5
ag14
ag12
ag8
aa(lp811
g454
ag345
ag42
ag5
ag18
ag7
ag8
aa(lp812
g454
ag345
ag42
ag5
ag18
ag10
ag8
aa(lp813
g454
ag345
ag42
ag5
ag18
ag12
ag8
aa(lp814
g454
ag345
ag42
ag22
ag6
ag7
ag8
aa(lp815
g454
ag345
ag42
ag22
ag6
ag10
ag8
aa(lp816
g454
ag345
ag42
ag22
ag6
ag12
ag247
aa(lp817
g454
ag345
ag42
ag22
ag14
ag7
ag8
aa(lp818
g454
ag345
ag42
ag22
ag14
ag10
ag8
aa(lp819
g454
ag345
ag42
ag22
ag14
ag12
ag247
aa(lp820
g454
ag345
ag42
ag22
ag18
ag7
ag8
aa(lp821
g454
ag345
ag42
ag22
ag18
ag10
ag247
aa(lp822
g454
ag345
ag42
ag22
ag18
ag12
ag247
aa(lp823
g454
ag345
ag42
ag32
ag6
ag7
ag8
aa(lp824
g454
ag345
ag42
ag32
ag6
ag10
ag8
aa(lp825
g454
ag345
ag42
ag32
ag6
ag12
ag247
aa(lp826
g454
ag345
ag42
ag32
ag14
ag7
ag8
aa(lp827
g454
ag345
ag42
ag32
ag14
ag10
ag247
aa(lp828
g454
ag345
ag42
ag32
ag14
ag12
ag247
aa(lp829
g454
ag345
ag42
ag32
ag18
ag7
ag8
aa(lp830
g454
ag345
ag42
ag32
ag18
ag10
ag247
aa(lp831
g454
ag345
ag42
ag32
ag18
ag12
ag247
aa(lp832
g454
ag345
ag70
ag5
ag6
ag7
ag8
aa(lp833
g454
ag345
ag70
ag5
ag6
ag10
ag8
aa(lp834
g454
ag345
ag70
ag5
ag6
ag12
ag8
aa(lp835
g454
ag345
ag70
ag5
ag14
ag7
ag8
aa(lp836
g454
ag345
ag70
ag5
ag14
ag10
ag8
aa(lp837
g454
ag345
ag70
ag5
ag14
ag12
ag8
aa(lp838
g454
ag345
ag70
ag5
ag18
ag7
ag8
aa(lp839
g454
ag345
ag70
ag5
ag18
ag10
ag8
aa(lp840
g454
ag345
ag70
ag5
ag18
ag12
ag8
aa(lp841
g454
ag345
ag70
ag22
ag6
ag7
ag8
aa(lp842
g454
ag345
ag70
ag22
ag6
ag10
ag8
aa(lp843
g454
ag345
ag70
ag22
ag6
ag12
ag247
aa(lp844
g454
ag345
ag70
ag22
ag14
ag7
ag8
aa(lp845
g454
ag345
ag70
ag22
ag14
ag10
ag247
aa(lp846
g454
ag345
ag70
ag22
ag14
ag12
ag247
aa(lp847
g454
ag345
ag70
ag22
ag18
ag7
ag8
aa(lp848
g454
ag345
ag70
ag22
ag18
ag10
ag247
aa(lp849
g454
ag345
ag70
ag22
ag18
ag12
ag247
aa(lp850
g454
ag345
ag70
ag32
ag6
ag7
ag8
aa(lp851
g454
ag345
ag70
ag32
ag6
ag10
ag8
aa(lp852
g454
ag345
ag70
ag32
ag6
ag12
ag247
aa(lp853
g454
ag345
ag70
ag32
ag14
ag7
ag8
aa(lp854
g454
ag345
ag70
ag32
ag14
ag10
ag247
aa(lp855
g454
ag345
ag70
ag32
ag14
ag12
ag247
aa(lp856
g454
ag345
ag70
ag32
ag18
ag7
ag8
aa(lp857
g454
ag345
ag70
ag32
ag18
ag10
ag247
aa(lp858
g454
ag345
ag70
ag32
ag18
ag12
ag247
aa(lp859
g454
ag345
ag98
ag5
ag6
ag7
ag8
aa(lp860
g454
ag345
ag98
ag5
ag6
ag10
ag8
aa(lp861
g454
ag345
ag98
ag5
ag6
ag12
ag8
aa(lp862
g454
ag345
ag98
ag5
ag14
ag7
ag8
aa(lp863
g454
ag345
ag98
ag5
ag14
ag10
ag8
aa(lp864
g454
ag345
ag98
ag5
ag14
ag12
ag8
aa(lp865
g454
ag345
ag98
ag5
ag18
ag7
ag8
aa(lp866
g454
ag345
ag98
ag5
ag18
ag10
ag8
aa(lp867
g454
ag345
ag98
ag5
ag18
ag12
ag8
aa(lp868
g454
ag345
ag98
ag22
ag6
ag7
ag8
aa(lp869
g454
ag345
ag98
ag22
ag6
ag10
ag8
aa(lp870
g454
ag345
ag98
ag22
ag6
ag12
ag247
aa(lp871
g454
ag345
ag98
ag22
ag14
ag7
ag8
aa(lp872
g454
ag345
ag98
ag22
ag14
ag10
ag247
aa(lp873
g454
ag345
ag98
ag22
ag14
ag12
ag247
aa(lp874
g454
ag345
ag98
ag22
ag18
ag7
ag8
aa(lp875
g454
ag345
ag98
ag22
ag18
ag10
ag247
aa(lp876
g454
ag345
ag98
ag22
ag18
ag12
ag247
aa(lp877
g454
ag345
ag98
ag32
ag6
ag7
ag8
aa(lp878
g454
ag345
ag98
ag32
ag6
ag10
ag8
aa(lp879
g454
ag345
ag98
ag32
ag6
ag12
ag247
aa(lp880
g454
ag345
ag98
ag32
ag14
ag7
ag8
aa(lp881
g454
ag345
ag98
ag32
ag14
ag10
ag247
aa(lp882
g454
ag345
ag98
ag32
ag14
ag12
ag247
aa(lp883
g454
ag345
ag98
ag32
ag18
ag7
ag8
aa(lp884
g454
ag345
ag98
ag32
ag18
ag10
ag247
aa(lp885
g454
ag345
ag98
ag32
ag18
ag12
ag247
aa(lp886
S'buying_med'
p887
ag3
ag4
ag5
ag6
ag7
ag8
aa(lp888
g887
ag3
ag4
ag5
ag6
ag10
ag8
aa(lp889
g887
ag3
ag4
ag5
ag6
ag12
ag8
aa(lp890
g887
ag3
ag4
ag5
ag14
ag7
ag8
aa(lp891
g887
ag3
ag4
ag5
ag14
ag10
ag8
aa(lp892
g887
ag3
ag4
ag5
ag14
ag12
ag8
aa(lp893
g887
ag3
ag4
ag5
ag18
ag7
ag8
aa(lp894
g887
ag3
ag4
ag5
ag18
ag10
ag8
aa(lp895
g887
ag3
ag4
ag5
ag18
ag12
ag8
aa(lp896
g887
ag3
ag4
ag22
ag6
ag7
ag8
aa(lp897
g887
ag3
ag4
ag22
ag6
ag10
ag8
aa(lp898
g887
ag3
ag4
ag22
ag6
ag12
ag247
aa(lp899
g887
ag3
ag4
ag22
ag14
ag7
ag8
aa(lp900
g887
ag3
ag4
ag22
ag14
ag10
ag8
aa(lp901
g887
ag3
ag4
ag22
ag14
ag12
ag247
aa(lp902
g887
ag3
ag4
ag22
ag18
ag7
ag8
aa(lp903
g887
ag3
ag4
ag22
ag18
ag10
ag247
aa(lp904
g887
ag3
ag4
ag22
ag18
ag12
ag247
aa(lp905
g887
ag3
ag4
ag32
ag6
ag7
ag8
aa(lp906
g887
ag3
ag4
ag32
ag6
ag10
ag8
aa(lp907
g887
ag3
ag4
ag32
ag6
ag12
ag8
aa(lp908
g887
ag3
ag4
ag32
ag14
ag7
ag8
aa(lp909
g887
ag3
ag4
ag32
ag14
ag10
ag8
aa(lp910
g887
ag3
ag4
ag32
ag14
ag12
ag247
aa(lp911
g887
ag3
ag4
ag32
ag18
ag7
ag8
aa(lp912
g887
ag3
ag4
ag32
ag18
ag10
ag247
aa(lp913
g887
ag3
ag4
ag32
ag18
ag12
ag247
aa(lp914
g887
ag3
ag42
ag5
ag6
ag7
ag8
aa(lp915
g887
ag3
ag42
ag5
ag6
ag10
ag8
aa(lp916
g887
ag3
ag42
ag5
ag6
ag12
ag8
aa(lp917
g887
ag3
ag42
ag5
ag14
ag7
ag8
aa(lp918
g887
ag3
ag42
ag5
ag14
ag10
ag8
aa(lp919
g887
ag3
ag42
ag5
ag14
ag12
ag8
aa(lp920
g887
ag3
ag42
ag5
ag18
ag7
ag8
aa(lp921
g887
ag3
ag42
ag5
ag18
ag10
ag8
aa(lp922
g887
ag3
ag42
ag5
ag18
ag12
ag8
aa(lp923
g887
ag3
ag42
ag22
ag6
ag7
ag8
aa(lp924
g887
ag3
ag42
ag22
ag6
ag10
ag8
aa(lp925
g887
ag3
ag42
ag22
ag6
ag12
ag247
aa(lp926
g887
ag3
ag42
ag22
ag14
ag7
ag8
aa(lp927
g887
ag3
ag42
ag22
ag14
ag10
ag8
aa(lp928
g887
ag3
ag42
ag22
ag14
ag12
ag247
aa(lp929
g887
ag3
ag42
ag22
ag18
ag7
ag8
aa(lp930
g887
ag3
ag42
ag22
ag18
ag10
ag247
aa(lp931
g887
ag3
ag42
ag22
ag18
ag12
ag247
aa(lp932
g887
ag3
ag42
ag32
ag6
ag7
ag8
aa(lp933
g887
ag3
ag42
ag32
ag6
ag10
ag8
aa(lp934
g887
ag3
ag42
ag32
ag6
ag12
ag247
aa(lp935
g887
ag3
ag42
ag32
ag14
ag7
ag8
aa(lp936
g887
ag3
ag42
ag32
ag14
ag10
ag247
aa(lp937
g887
ag3
ag42
ag32
ag14
ag12
ag247
aa(lp938
g887
ag3
ag42
ag32
ag18
ag7
ag8
aa(lp939
g887
ag3
ag42
ag32
ag18
ag10
ag247
aa(lp940
g887
ag3
ag42
ag32
ag18
ag12
ag247
aa(lp941
g887
ag3
ag70
ag5
ag6
ag7
ag8
aa(lp942
g887
ag3
ag70
ag5
ag6
ag10
ag8
aa(lp943
g887
ag3
ag70
ag5
ag6
ag12
ag8
aa(lp944
g887
ag3
ag70
ag5
ag14
ag7
ag8
aa(lp945
g887
ag3
ag70
ag5
ag14
ag10
ag8
aa(lp946
g887
ag3
ag70
ag5
ag14
ag12
ag8
aa(lp947
g887
ag3
ag70
ag5
ag18
ag7
ag8
aa(lp948
g887
ag3
ag70
ag5
ag18
ag10
ag8
aa(lp949
g887
ag3
ag70
ag5
ag18
ag12
ag8
aa(lp950
g887
ag3
ag70
ag22
ag6
ag7
ag8
aa(lp951
g887
ag3
ag70
ag22
ag6
ag10
ag8
aa(lp952
g887
ag3
ag70
ag22
ag6
ag12
ag247
aa(lp953
g887
ag3
ag70
ag22
ag14
ag7
ag8
aa(lp954
g887
ag3
ag70
ag22
ag14
ag10
ag247
aa(lp955
g887
ag3
ag70
ag22
ag14
ag12
ag247
aa(lp956
g887
ag3
ag70
ag22
ag18
ag7
ag8
aa(lp957
g887
ag3
ag70
ag22
ag18
ag10
ag247
aa(lp958
g887
ag3
ag70
ag22
ag18
ag12
ag247
aa(lp959
g887
ag3
ag70
ag32
ag6
ag7
ag8
aa(lp960
g887
ag3
ag70
ag32
ag6
ag10
ag8
aa(lp961
g887
ag3
ag70
ag32
ag6
ag12
ag247
aa(lp962
g887
ag3
ag70
ag32
ag14
ag7
ag8
aa(lp963
g887
ag3
ag70
ag32
ag14
ag10
ag247
aa(lp964
g887
ag3
ag70
ag32
ag14
ag12
ag247
aa(lp965
g887
ag3
ag70
ag32
ag18
ag7
ag8
aa(lp966
g887
ag3
ag70
ag32
ag18
ag10
ag247
aa(lp967
g887
ag3
ag70
ag32
ag18
ag12
ag247
aa(lp968
g887
ag3
ag98
ag5
ag6
ag7
ag8
aa(lp969
g887
ag3
ag98
ag5
ag6
ag10
ag8
aa(lp970
g887
ag3
ag98
ag5
ag6
ag12
ag8
aa(lp971
g887
ag3
ag98
ag5
ag14
ag7
ag8
aa(lp972
g887
ag3
ag98
ag5
ag14
ag10
ag8
aa(lp973
g887
ag3
ag98
ag5
ag14
ag12
ag8
aa(lp974
g887
ag3
ag98
ag5
ag18
ag7
ag8
aa(lp975
g887
ag3
ag98
ag5
ag18
ag10
ag8
aa(lp976
g887
ag3
ag98
ag5
ag18
ag12
ag8
aa(lp977
g887
ag3
ag98
ag22
ag6
ag7
ag8
aa(lp978
g887
ag3
ag98
ag22
ag6
ag10
ag8
aa(lp979
g887
ag3
ag98
ag22
ag6
ag12
ag247
aa(lp980
g887
ag3
ag98
ag22
ag14
ag7
ag8
aa(lp981
g887
ag3
ag98
ag22
ag14
ag10
ag247
aa(lp982
g887
ag3
ag98
ag22
ag14
ag12
ag247
aa(lp983
g887
ag3
ag98
ag22
ag18
ag7
ag8
aa(lp984
g887
ag3
ag98
ag22
ag18
ag10
ag247
aa(lp985
g887
ag3
ag98
ag22
ag18
ag12
ag247
aa(lp986
g887
ag3
ag98
ag32
ag6
ag7
ag8
aa(lp987
g887
ag3
ag98
ag32
ag6
ag10
ag8
aa(lp988
g887
ag3
ag98
ag32
ag6
ag12
ag247
aa(lp989
g887
ag3
ag98
ag32
ag14
ag7
ag8
aa(lp990
g887
ag3
ag98
ag32
ag14
ag10
ag247
aa(lp991
g887
ag3
ag98
ag32
ag14
ag12
ag247
aa(lp992
g887
ag3
ag98
ag32
ag18
ag7
ag8
aa(lp993
g887
ag3
ag98
ag32
ag18
ag10
ag247
aa(lp994
g887
ag3
ag98
ag32
ag18
ag12
ag247
aa(lp995
g887
ag126
ag4
ag5
ag6
ag7
ag8
aa(lp996
g887
ag126
ag4
ag5
ag6
ag10
ag8
aa(lp997
g887
ag126
ag4
ag5
ag6
ag12
ag8
aa(lp998
g887
ag126
ag4
ag5
ag14
ag7
ag8
aa(lp999
g887
ag126
ag4
ag5
ag14
ag10
ag8
aa(lp1000
g887
ag126
ag4
ag5
ag14
ag12
ag8
aa(lp1001
g887
ag126
ag4
ag5
ag18
ag7
ag8
aa(lp1002
g887
ag126
ag4
ag5
ag18
ag10
ag8
aa(lp1003
g887
ag126
ag4
ag5
ag18
ag12
ag8
aa(lp1004
g887
ag126
ag4
ag22
ag6
ag7
ag8
aa(lp1005
g887
ag126
ag4
ag22
ag6
ag10
ag8
aa(lp1006
g887
ag126
ag4
ag22
ag6
ag12
ag247
aa(lp1007
g887
ag126
ag4
ag22
ag14
ag7
ag8
aa(lp1008
g887
ag126
ag4
ag22
ag14
ag10
ag8
aa(lp1009
g887
ag126
ag4
ag22
ag14
ag12
ag247
aa(lp1010
g887
ag126
ag4
ag22
ag18
ag7
ag8
aa(lp1011
g887
ag126
ag4
ag22
ag18
ag10
ag247
aa(lp1012
g887
ag126
ag4
ag22
ag18
ag12
ag247
aa(lp1013
g887
ag126
ag4
ag32
ag6
ag7
ag8
aa(lp1014
g887
ag126
ag4
ag32
ag6
ag10
ag8
aa(lp1015
g887
ag126
ag4
ag32
ag6
ag12
ag8
aa(lp1016
g887
ag126
ag4
ag32
ag14
ag7
ag8
aa(lp1017
g887
ag126
ag4
ag32
ag14
ag10
ag8
aa(lp1018
g887
ag126
ag4
ag32
ag14
ag12
ag247
aa(lp1019
g887
ag126
ag4
ag32
ag18
ag7
ag8
aa(lp1020
g887
ag126
ag4
ag32
ag18
ag10
ag247
aa(lp1021
g887
ag126
ag4
ag32
ag18
ag12
ag247
aa(lp1022
g887
ag126
ag42
ag5
ag6
ag7
ag8
aa(lp1023
g887
ag126
ag42
ag5
ag6
ag10
ag8
aa(lp1024
g887
ag126
ag42
ag5
ag6
ag12
ag8
aa(lp1025
g887
ag126
ag42
ag5
ag14
ag7
ag8
aa(lp1026
g887
ag126
ag42
ag5
ag14
ag10
ag8
aa(lp1027
g887
ag126
ag42
ag5
ag14
ag12
ag8
aa(lp1028
g887
ag126
ag42
ag5
ag18
ag7
ag8
aa(lp1029
g887
ag126
ag42
ag5
ag18
ag10
ag8
aa(lp1030
g887
ag126
ag42
ag5
ag18
ag12
ag8
aa(lp1031
g887
ag126
ag42
ag22
ag6
ag7
ag8
aa(lp1032
g887
ag126
ag42
ag22
ag6
ag10
ag8
aa(lp1033
g887
ag126
ag42
ag22
ag6
ag12
ag247
aa(lp1034
g887
ag126
ag42
ag22
ag14
ag7
ag8
aa(lp1035
g887
ag126
ag42
ag22
ag14
ag10
ag8
aa(lp1036
g887
ag126
ag42
ag22
ag14
ag12
ag247
aa(lp1037
g887
ag126
ag42
ag22
ag18
ag7
ag8
aa(lp1038
g887
ag126
ag42
ag22
ag18
ag10
ag247
aa(lp1039
g887
ag126
ag42
ag22
ag18
ag12
ag247
aa(lp1040
g887
ag126
ag42
ag32
ag6
ag7
ag8
aa(lp1041
g887
ag126
ag42
ag32
ag6
ag10
ag8
aa(lp1042
g887
ag126
ag42
ag32
ag6
ag12
ag247
aa(lp1043
g887
ag126
ag42
ag32
ag14
ag7
ag8
aa(lp1044
g887
ag126
ag42
ag32
ag14
ag10
ag247
aa(lp1045
g887
ag126
ag42
ag32
ag14
ag12
ag247
aa(lp1046
g887
ag126
ag42
ag32
ag18
ag7
ag8
aa(lp1047
g887
ag126
ag42
ag32
ag18
ag10
ag247
aa(lp1048
g887
ag126
ag42
ag32
ag18
ag12
ag247
aa(lp1049
g887
ag126
ag70
ag5
ag6
ag7
ag8
aa(lp1050
g887
ag126
ag70
ag5
ag6
ag10
ag8
aa(lp1051
g887
ag126
ag70
ag5
ag6
ag12
ag8
aa(lp1052
g887
ag126
ag70
ag5
ag14
ag7
ag8
aa(lp1053
g887
ag126
ag70
ag5
ag14
ag10
ag8
aa(lp1054
g887
ag126
ag70
ag5
ag14
ag12
ag8
aa(lp1055
g887
ag126
ag70
ag5
ag18
ag7
ag8
aa(lp1056
g887
ag126
ag70
ag5
ag18
ag10
ag8
aa(lp1057
g887
ag126
ag70
ag5
ag18
ag12
ag8
aa(lp1058
g887
ag126
ag70
ag22
ag6
ag7
ag8
aa(lp1059
g887
ag126
ag70
ag22
ag6
ag10
ag8
aa(lp1060
g887
ag126
ag70
ag22
ag6
ag12
ag247
aa(lp1061
g887
ag126
ag70
ag22
ag14
ag7
ag8
aa(lp1062
g887
ag126
ag70
ag22
ag14
ag10
ag247
aa(lp1063
g887
ag126
ag70
ag22
ag14
ag12
ag247
aa(lp1064
g887
ag126
ag70
ag22
ag18
ag7
ag8
aa(lp1065
g887
ag126
ag70
ag22
ag18
ag10
ag247
aa(lp1066
g887
ag126
ag70
ag22
ag18
ag12
ag247
aa(lp1067
g887
ag126
ag70
ag32
ag6
ag7
ag8
aa(lp1068
g887
ag126
ag70
ag32
ag6
ag10
ag8
aa(lp1069
g887
ag126
ag70
ag32
ag6
ag12
ag247
aa(lp1070
g887
ag126
ag70
ag32
ag14
ag7
ag8
aa(lp1071
g887
ag126
ag70
ag32
ag14
ag10
ag247
aa(lp1072
g887
ag126
ag70
ag32
ag14
ag12
ag247
aa(lp1073
g887
ag126
ag70
ag32
ag18
ag7
ag8
aa(lp1074
g887
ag126
ag70
ag32
ag18
ag10
ag247
aa(lp1075
g887
ag126
ag70
ag32
ag18
ag12
ag247
aa(lp1076
g887
ag126
ag98
ag5
ag6
ag7
ag8
aa(lp1077
g887
ag126
ag98
ag5
ag6
ag10
ag8
aa(lp1078
g887
ag126
ag98
ag5
ag6
ag12
ag8
aa(lp1079
g887
ag126
ag98
ag5
ag14
ag7
ag8
aa(lp1080
g887
ag126
ag98
ag5
ag14
ag10
ag8
aa(lp1081
g887
ag126
ag98
ag5
ag14
ag12
ag8
aa(lp1082
g887
ag126
ag98
ag5
ag18
ag7
ag8
aa(lp1083
g887
ag126
ag98
ag5
ag18
ag10
ag8
aa(lp1084
g887
ag126
ag98
ag5
ag18
ag12
ag8
aa(lp1085
g887
ag126
ag98
ag22
ag6
ag7
ag8
aa(lp1086
g887
ag126
ag98
ag22
ag6
ag10
ag8
aa(lp1087
g887
ag126
ag98
ag22
ag6
ag12
ag247
aa(lp1088
g887
ag126
ag98
ag22
ag14
ag7
ag8
aa(lp1089
g887
ag126
ag98
ag22
ag14
ag10
ag247
aa(lp1090
g887
ag126
ag98
ag22
ag14
ag12
ag247
aa(lp1091
g887
ag126
ag98
ag22
ag18
ag7
ag8
aa(lp1092
g887
ag126
ag98
ag22
ag18
ag10
ag247
aa(lp1093
g887
ag126
ag98
ag22
ag18
ag12
ag247
aa(lp1094
g887
ag126
ag98
ag32
ag6
ag7
ag8
aa(lp1095
g887
ag126
ag98
ag32
ag6
ag10
ag8
aa(lp1096
g887
ag126
ag98
ag32
ag6
ag12
ag247
aa(lp1097
g887
ag126
ag98
ag32
ag14
ag7
ag8
aa(lp1098
g887
ag126
ag98
ag32
ag14
ag10
ag247
aa(lp1099
g887
ag126
ag98
ag32
ag14
ag12
ag247
aa(lp1100
g887
ag126
ag98
ag32
ag18
ag7
ag8
aa(lp1101
g887
ag126
ag98
ag32
ag18
ag10
ag247
aa(lp1102
g887
ag126
ag98
ag32
ag18
ag12
ag247
aa(lp1103
g887
ag235
ag4
ag5
ag6
ag7
ag8
aa(lp1104
g887
ag235
ag4
ag5
ag6
ag10
ag8
aa(lp1105
g887
ag235
ag4
ag5
ag6
ag12
ag8
aa(lp1106
g887
ag235
ag4
ag5
ag14
ag7
ag8
aa(lp1107
g887
ag235
ag4
ag5
ag14
ag10
ag8
aa(lp1108
g887
ag235
ag4
ag5
ag14
ag12
ag8
aa(lp1109
g887
ag235
ag4
ag5
ag18
ag7
ag8
aa(lp1110
g887
ag235
ag4
ag5
ag18
ag10
ag8
aa(lp1111
g887
ag235
ag4
ag5
ag18
ag12
ag8
aa(lp1112
g887
ag235
ag4
ag22
ag6
ag7
ag8
aa(lp1113
g887
ag235
ag4
ag22
ag6
ag10
ag247
aa(lp1114
g887
ag235
ag4
ag22
ag6
ag12
ag247
aa(lp1115
g887
ag235
ag4
ag22
ag14
ag7
ag8
aa(lp1116
g887
ag235
ag4
ag22
ag14
ag10
ag247
aa(lp1117
g887
ag235
ag4
ag22
ag14
ag12
ag247
aa(lp1118
g887
ag235
ag4
ag22
ag18
ag7
ag8
aa(lp1119
g887
ag235
ag4
ag22
ag18
ag10
ag247
aa(lp1120
g887
ag235
ag4
ag22
ag18
ag12
aS'class_v_good'
p1121
aa(lp1122
g887
ag235
ag4
ag32
ag6
ag7
ag8
aa(lp1123
g887
ag235
ag4
ag32
ag6
ag10
ag8
aa(lp1124
g887
ag235
ag4
ag32
ag6
ag12
ag8
aa(lp1125
g887
ag235
ag4
ag32
ag14
ag7
ag8
aa(lp1126
g887
ag235
ag4
ag32
ag14
ag10
ag247
aa(lp1127
g887
ag235
ag4
ag32
ag14
ag12
ag247
aa(lp1128
g887
ag235
ag4
ag32
ag18
ag7
ag8
aa(lp1129
g887
ag235
ag4
ag32
ag18
ag10
ag247
aa(lp1130
g887
ag235
ag4
ag32
ag18
ag12
ag1121
aa(lp1131
g887
ag235
ag42
ag5
ag6
ag7
ag8
aa(lp1132
g887
ag235
ag42
ag5
ag6
ag10
ag8
aa(lp1133
g887
ag235
ag42
ag5
ag6
ag12
ag8
aa(lp1134
g887
ag235
ag42
ag5
ag14
ag7
ag8
aa(lp1135
g887
ag235
ag42
ag5
ag14
ag10
ag8
aa(lp1136
g887
ag235
ag42
ag5
ag14
ag12
ag8
aa(lp1137
g887
ag235
ag42
ag5
ag18
ag7
ag8
aa(lp1138
g887
ag235
ag42
ag5
ag18
ag10
ag8
aa(lp1139
g887
ag235
ag42
ag5
ag18
ag12
ag8
aa(lp1140
g887
ag235
ag42
ag22
ag6
ag7
ag8
aa(lp1141
g887
ag235
ag42
ag22
ag6
ag10
ag247
aa(lp1142
g887
ag235
ag42
ag22
ag6
ag12
ag247
aa(lp1143
g887
ag235
ag42
ag22
ag14
ag7
ag8
aa(lp1144
g887
ag235
ag42
ag22
ag14
ag10
ag247
aa(lp1145
g887
ag235
ag42
ag22
ag14
ag12
ag247
aa(lp1146
g887
ag235
ag42
ag22
ag18
ag7
ag8
aa(lp1147
g887
ag235
ag42
ag22
ag18
ag10
ag247
aa(lp1148
g887
ag235
ag42
ag22
ag18
ag12
ag1121
aa(lp1149
g887
ag235
ag42
ag32
ag6
ag7
ag8
aa(lp1150
g887
ag235
ag42
ag32
ag6
ag10
ag247
aa(lp1151
g887
ag235
ag42
ag32
ag6
ag12
ag247
aa(lp1152
g887
ag235
ag42
ag32
ag14
ag7
ag8
aa(lp1153
g887
ag235
ag42
ag32
ag14
ag10
ag247
aa(lp1154
g887
ag235
ag42
ag32
ag14
ag12
ag1121
aa(lp1155
g887
ag235
ag42
ag32
ag18
ag7
ag8
aa(lp1156
g887
ag235
ag42
ag32
ag18
ag10
ag247
aa(lp1157
g887
ag235
ag42
ag32
ag18
ag12
ag1121
aa(lp1158
g887
ag235
ag70
ag5
ag6
ag7
ag8
aa(lp1159
g887
ag235
ag70
ag5
ag6
ag10
ag8
aa(lp1160
g887
ag235
ag70
ag5
ag6
ag12
ag8
aa(lp1161
g887
ag235
ag70
ag5
ag14
ag7
ag8
aa(lp1162
g887
ag235
ag70
ag5
ag14
ag10
ag8
aa(lp1163
g887
ag235
ag70
ag5
ag14
ag12
ag8
aa(lp1164
g887
ag235
ag70
ag5
ag18
ag7
ag8
aa(lp1165
g887
ag235
ag70
ag5
ag18
ag10
ag8
aa(lp1166
g887
ag235
ag70
ag5
ag18
ag12
ag8
aa(lp1167
g887
ag235
ag70
ag22
ag6
ag7
ag8
aa(lp1168
g887
ag235
ag70
ag22
ag6
ag10
ag247
aa(lp1169
g887
ag235
ag70
ag22
ag6
ag12
ag247
aa(lp1170
g887
ag235
ag70
ag22
ag14
ag7
ag8
aa(lp1171
g887
ag235
ag70
ag22
ag14
ag10
ag247
aa(lp1172
g887
ag235
ag70
ag22
ag14
ag12
ag1121
aa(lp1173
g887
ag235
ag70
ag22
ag18
ag7
ag8
aa(lp1174
g887
ag235
ag70
ag22
ag18
ag10
ag247
aa(lp1175
g887
ag235
ag70
ag22
ag18
ag12
ag1121
aa(lp1176
g887
ag235
ag70
ag32
ag6
ag7
ag8
aa(lp1177
g887
ag235
ag70
ag32
ag6
ag10
ag247
aa(lp1178
g887
ag235
ag70
ag32
ag6
ag12
ag247
aa(lp1179
g887
ag235
ag70
ag32
ag14
ag7
ag8
aa(lp1180
g887
ag235
ag70
ag32
ag14
ag10
ag247
aa(lp1181
g887
ag235
ag70
ag32
ag14
ag12
ag1121
aa(lp1182
g887
ag235
ag70
ag32
ag18
ag7
ag8
aa(lp1183
g887
ag235
ag70
ag32
ag18
ag10
ag247
aa(lp1184
g887
ag235
ag70
ag32
ag18
ag12
ag1121
aa(lp1185
g887
ag235
ag98
ag5
ag6
ag7
ag8
aa(lp1186
g887
ag235
ag98
ag5
ag6
ag10
ag8
aa(lp1187
g887
ag235
ag98
ag5
ag6
ag12
ag8
aa(lp1188
g887
ag235
ag98
ag5
ag14
ag7
ag8
aa(lp1189
g887
ag235
ag98
ag5
ag14
ag10
ag8
aa(lp1190
g887
ag235
ag98
ag5
ag14
ag12
ag8
aa(lp1191
g887
ag235
ag98
ag5
ag18
ag7
ag8
aa(lp1192
g887
ag235
ag98
ag5
ag18
ag10
ag8
aa(lp1193
g887
ag235
ag98
ag5
ag18
ag12
ag8
aa(lp1194
g887
ag235
ag98
ag22
ag6
ag7
ag8
aa(lp1195
g887
ag235
ag98
ag22
ag6
ag10
ag247
aa(lp1196
g887
ag235
ag98
ag22
ag6
ag12
ag247
aa(lp1197
g887
ag235
ag98
ag22
ag14
ag7
ag8
aa(lp1198
g887
ag235
ag98
ag22
ag14
ag10
ag247
aa(lp1199
g887
ag235
ag98
ag22
ag14
ag12
ag1121
aa(lp1200
g887
ag235
ag98
ag22
ag18
ag7
ag8
aa(lp1201
g887
ag235
ag98
ag22
ag18
ag10
ag247
aa(lp1202
g887
ag235
ag98
ag22
ag18
ag12
ag1121
aa(lp1203
g887
ag235
ag98
ag32
ag6
ag7
ag8
aa(lp1204
g887
ag235
ag98
ag32
ag6
ag10
ag247
aa(lp1205
g887
ag235
ag98
ag32
ag6
ag12
ag247
aa(lp1206
g887
ag235
ag98
ag32
ag14
ag7
ag8
aa(lp1207
g887
ag235
ag98
ag32
ag14
ag10
ag247
aa(lp1208
g887
ag235
ag98
ag32
ag14
ag12
ag1121
aa(lp1209
g887
ag235
ag98
ag32
ag18
ag7
ag8
aa(lp1210
g887
ag235
ag98
ag32
ag18
ag10
ag247
aa(lp1211
g887
ag235
ag98
ag32
ag18
ag12
ag1121
aa(lp1212
g887
ag345
ag4
ag5
ag6
ag7
ag8
aa(lp1213
g887
ag345
ag4
ag5
ag6
ag10
ag8
aa(lp1214
g887
ag345
ag4
ag5
ag6
ag12
ag8
aa(lp1215
g887
ag345
ag4
ag5
ag14
ag7
ag8
aa(lp1216
g887
ag345
ag4
ag5
ag14
ag10
ag8
aa(lp1217
g887
ag345
ag4
ag5
ag14
ag12
ag8
aa(lp1218
g887
ag345
ag4
ag5
ag18
ag7
ag8
aa(lp1219
g887
ag345
ag4
ag5
ag18
ag10
ag8
aa(lp1220
g887
ag345
ag4
ag5
ag18
ag12
ag8
aa(lp1221
g887
ag345
ag4
ag22
ag6
ag7
ag8
aa(lp1222
g887
ag345
ag4
ag22
ag6
ag10
ag247
aa(lp1223
g887
ag345
ag4
ag22
ag6
ag12
aS'class_good'
p1224
aa(lp1225
g887
ag345
ag4
ag22
ag14
ag7
ag8
aa(lp1226
g887
ag345
ag4
ag22
ag14
ag10
ag247
aa(lp1227
g887
ag345
ag4
ag22
ag14
ag12
ag1224
aa(lp1228
g887
ag345
ag4
ag22
ag18
ag7
ag8
aa(lp1229
g887
ag345
ag4
ag22
ag18
ag10
ag1224
aa(lp1230
g887
ag345
ag4
ag22
ag18
ag12
ag1121
aa(lp1231
g887
ag345
ag4
ag32
ag6
ag7
ag8
aa(lp1232
g887
ag345
ag4
ag32
ag6
ag10
ag8
aa(lp1233
g887
ag345
ag4
ag32
ag6
ag12
ag8
aa(lp1234
g887
ag345
ag4
ag32
ag14
ag7
ag8
aa(lp1235
g887
ag345
ag4
ag32
ag14
ag10
ag247
aa(lp1236
g887
ag345
ag4
ag32
ag14
ag12
ag1224
aa(lp1237
g887
ag345
ag4
ag32
ag18
ag7
ag8
aa(lp1238
g887
ag345
ag4
ag32
ag18
ag10
ag1224
aa(lp1239
g887
ag345
ag4
ag32
ag18
ag12
ag1121
aa(lp1240
g887
ag345
ag42
ag5
ag6
ag7
ag8
aa(lp1241
g887
ag345
ag42
ag5
ag6
ag10
ag8
aa(lp1242
g887
ag345
ag42
ag5
ag6
ag12
ag8
aa(lp1243
g887
ag345
ag42
ag5
ag14
ag7
ag8
aa(lp1244
g887
ag345
ag42
ag5
ag14
ag10
ag8
aa(lp1245
g887
ag345
ag42
ag5
ag14
ag12
ag8
aa(lp1246
g887
ag345
ag42
ag5
ag18
ag7
ag8
aa(lp1247
g887
ag345
ag42
ag5
ag18
ag10
ag8
aa(lp1248
g887
ag345
ag42
ag5
ag18
ag12
ag8
aa(lp1249
g887
ag345
ag42
ag22
ag6
ag7
ag8
aa(lp1250
g887
ag345
ag42
ag22
ag6
ag10
ag247
aa(lp1251
g887
ag345
ag42
ag22
ag6
ag12
ag1224
aa(lp1252
g887
ag345
ag42
ag22
ag14
ag7
ag8
aa(lp1253
g887
ag345
ag42
ag22
ag14
ag10
ag247
aa(lp1254
g887
ag345
ag42
ag22
ag14
ag12
ag1224
aa(lp1255
g887
ag345
ag42
ag22
ag18
ag7
ag8
aa(lp1256
g887
ag345
ag42
ag22
ag18
ag10
ag1224
aa(lp1257
g887
ag345
ag42
ag22
ag18
ag12
ag1121
aa(lp1258
g887
ag345
ag42
ag32
ag6
ag7
ag8
aa(lp1259
g887
ag345
ag42
ag32
ag6
ag10
ag247
aa(lp1260
g887
ag345
ag42
ag32
ag6
ag12
ag1224
aa(lp1261
g887
ag345
ag42
ag32
ag14
ag7
ag8
aa(lp1262
g887
ag345
ag42
ag32
ag14
ag10
ag1224
aa(lp1263
g887
ag345
ag42
ag32
ag14
ag12
ag1121
aa(lp1264
g887
ag345
ag42
ag32
ag18
ag7
ag8
aa(lp1265
g887
ag345
ag42
ag32
ag18
ag10
ag1224
aa(lp1266
g887
ag345
ag42
ag32
ag18
ag12
ag1121
aa(lp1267
g887
ag345
ag70
ag5
ag6
ag7
ag8
aa(lp1268
g887
ag345
ag70
ag5
ag6
ag10
ag8
aa(lp1269
g887
ag345
ag70
ag5
ag6
ag12
ag8
aa(lp1270
g887
ag345
ag70
ag5
ag14
ag7
ag8
aa(lp1271
g887
ag345
ag70
ag5
ag14
ag10
ag8
aa(lp1272
g887
ag345
ag70
ag5
ag14
ag12
ag8
aa(lp1273
g887
ag345
ag70
ag5
ag18
ag7
ag8
aa(lp1274
g887
ag345
ag70
ag5
ag18
ag10
ag8
aa(lp1275
g887
ag345
ag70
ag5
ag18
ag12
ag8
aa(lp1276
g887
ag345
ag70
ag22
ag6
ag7
ag8
aa(lp1277
g887
ag345
ag70
ag22
ag6
ag10
ag247
aa(lp1278
g887
ag345
ag70
ag22
ag6
ag12
ag1224
aa(lp1279
g887
ag345
ag70
ag22
ag14
ag7
ag8
aa(lp1280
g887
ag345
ag70
ag22
ag14
ag10
ag1224
aa(lp1281
g887
ag345
ag70
ag22
ag14
ag12
ag1121
aa(lp1282
g887
ag345
ag70
ag22
ag18
ag7
ag8
aa(lp1283
g887
ag345
ag70
ag22
ag18
ag10
ag1224
aa(lp1284
g887
ag345
ag70
ag22
ag18
ag12
ag1121
aa(lp1285
g887
ag345
ag70
ag32
ag6
ag7
ag8
aa(lp1286
g887
ag345
ag70
ag32
ag6
ag10
ag247
aa(lp1287
g887
ag345
ag70
ag32
ag6
ag12
ag1224
aa(lp1288
g887
ag345
ag70
ag32
ag14
ag7
ag8
aa(lp1289
g887
ag345
ag70
ag32
ag14
ag10
ag1224
aa(lp1290
g887
ag345
ag70
ag32
ag14
ag12
ag1121
aa(lp1291
g887
ag345
ag70
ag32
ag18
ag7
ag8
aa(lp1292
g887
ag345
ag70
ag32
ag18
ag10
ag1224
aa(lp1293
g887
ag345
ag70
ag32
ag18
ag12
ag1121
aa(lp1294
g887
ag345
ag98
ag5
ag6
ag7
ag8
aa(lp1295
g887
ag345
ag98
ag5
ag6
ag10
ag8
aa(lp1296
g887
ag345
ag98
ag5
ag6
ag12
ag8
aa(lp1297
g887
ag345
ag98
ag5
ag14
ag7
ag8
aa(lp1298
g887
ag345
ag98
ag5
ag14
ag10
ag8
aa(lp1299
g887
ag345
ag98
ag5
ag14
ag12
ag8
aa(lp1300
g887
ag345
ag98
ag5
ag18
ag7
ag8
aa(lp1301
g887
ag345
ag98
ag5
ag18
ag10
ag8
aa(lp1302
g887
ag345
ag98
ag5
ag18
ag12
ag8
aa(lp1303
g887
ag345
ag98
ag22
ag6
ag7
ag8
aa(lp1304
g887
ag345
ag98
ag22
ag6
ag10
ag247
aa(lp1305
g887
ag345
ag98
ag22
ag6
ag12
ag1224
aa(lp1306
g887
ag345
ag98
ag22
ag14
ag7
ag8
aa(lp1307
g887
ag345
ag98
ag22
ag14
ag10
ag1224
aa(lp1308
g887
ag345
ag98
ag22
ag14
ag12
ag1121
aa(lp1309
g887
ag345
ag98
ag22
ag18
ag7
ag8
aa(lp1310
g887
ag345
ag98
ag22
ag18
ag10
ag1224
aa(lp1311
g887
ag345
ag98
ag22
ag18
ag12
ag1121
aa(lp1312
g887
ag345
ag98
ag32
ag6
ag7
ag8
aa(lp1313
g887
ag345
ag98
ag32
ag6
ag10
ag247
aa(lp1314
g887
ag345
ag98
ag32
ag6
ag12
ag1224
aa(lp1315
g887
ag345
ag98
ag32
ag14
ag7
ag8
aa(lp1316
g887
ag345
ag98
ag32
ag14
ag10
ag1224
aa(lp1317
g887
ag345
ag98
ag32
ag14
ag12
ag1121
aa(lp1318
g887
ag345
ag98
ag32
ag18
ag7
ag8
aa(lp1319
g887
ag345
ag98
ag32
ag18
ag10
ag1224
aa(lp1320
g887
ag345
ag98
ag32
ag18
ag12
ag1121
aa(lp1321
S'buying_low'
p1322
ag3
ag4
ag5
ag6
ag7
ag8
aa(lp1323
g1322
ag3
ag4
ag5
ag6
ag10
ag8
aa(lp1324
g1322
ag3
ag4
ag5
ag6
ag12
ag8
aa(lp1325
g1322
ag3
ag4
ag5
ag14
ag7
ag8
aa(lp1326
g1322
ag3
ag4
ag5
ag14
ag10
ag8
aa(lp1327
g1322
ag3
ag4
ag5
ag14
ag12
ag8
aa(lp1328
g1322
ag3
ag4
ag5
ag18
ag7
ag8
aa(lp1329
g1322
ag3
ag4
ag5
ag18
ag10
ag8
aa(lp1330
g1322
ag3
ag4
ag5
ag18
ag12
ag8
aa(lp1331
g1322
ag3
ag4
ag22
ag6
ag7
ag8
aa(lp1332
g1322
ag3
ag4
ag22
ag6
ag10
ag8
aa(lp1333
g1322
ag3
ag4
ag22
ag6
ag12
ag247
aa(lp1334
g1322
ag3
ag4
ag22
ag14
ag7
ag8
aa(lp1335
g1322
ag3
ag4
ag22
ag14
ag10
ag8
aa(lp1336
g1322
ag3
ag4
ag22
ag14
ag12
ag247
aa(lp1337
g1322
ag3
ag4
ag22
ag18
ag7
ag8
aa(lp1338
g1322
ag3
ag4
ag22
ag18
ag10
ag247
aa(lp1339
g1322
ag3
ag4
ag22
ag18
ag12
ag247
aa(lp1340
g1322
ag3
ag4
ag32
ag6
ag7
ag8
aa(lp1341
g1322
ag3
ag4
ag32
ag6
ag10
ag8
aa(lp1342
g1322
ag3
ag4
ag32
ag6
ag12
ag8
aa(lp1343
g1322
ag3
ag4
ag32
ag14
ag7
ag8
aa(lp1344
g1322
ag3
ag4
ag32
ag14
ag10
ag8
aa(lp1345
g1322
ag3
ag4
ag32
ag14
ag12
ag247
aa(lp1346
g1322
ag3
ag4
ag32
ag18
ag7
ag8
aa(lp1347
g1322
ag3
ag4
ag32
ag18
ag10
ag247
aa(lp1348
g1322
ag3
ag4
ag32
ag18
ag12
ag247
aa(lp1349
g1322
ag3
ag42
ag5
ag6
ag7
ag8
aa(lp1350
g1322
ag3
ag42
ag5
ag6
ag10
ag8
aa(lp1351
g1322
ag3
ag42
ag5
ag6
ag12
ag8
aa(lp1352
g1322
ag3
ag42
ag5
ag14
ag7
ag8
aa(lp1353
g1322
ag3
ag42
ag5
ag14
ag10
ag8
aa(lp1354
g1322
ag3
ag42
ag5
ag14
ag12
ag8
aa(lp1355
g1322
ag3
ag42
ag5
ag18
ag7
ag8
aa(lp1356
g1322
ag3
ag42
ag5
ag18
ag10
ag8
aa(lp1357
g1322
ag3
ag42
ag5
ag18
ag12
ag8
aa(lp1358
g1322
ag3
ag42
ag22
ag6
ag7
ag8
aa(lp1359
g1322
ag3
ag42
ag22
ag6
ag10
ag8
aa(lp1360
g1322
ag3
ag42
ag22
ag6
ag12
ag247
aa(lp1361
g1322
ag3
ag42
ag22
ag14
ag7
ag8
aa(lp1362
g1322
ag3
ag42
ag22
ag14
ag10
ag8
aa(lp1363
g1322
ag3
ag42
ag22
ag14
ag12
ag247
aa(lp1364
g1322
ag3
ag42
ag22
ag18
ag7
ag8
aa(lp1365
g1322
ag3
ag42
ag22
ag18
ag10
ag247
aa(lp1366
g1322
ag3
ag42
ag22
ag18
ag12
ag247
aa(lp1367
g1322
ag3
ag42
ag32
ag6
ag7
ag8
aa(lp1368
g1322
ag3
ag42
ag32
ag6
ag10
ag8
aa(lp1369
g1322
ag3
ag42
ag32
ag6
ag12
ag247
aa(lp1370
g1322
ag3
ag42
ag32
ag14
ag7
ag8
aa(lp1371
g1322
ag3
ag42
ag32
ag14
ag10
ag247
aa(lp1372
g1322
ag3
ag42
ag32
ag14
ag12
ag247
aa(lp1373
g1322
ag3
ag42
ag32
ag18
ag7
ag8
aa(lp1374
g1322
ag3
ag42
ag32
ag18
ag10
ag247
aa(lp1375
g1322
ag3
ag42
ag32
ag18
ag12
ag247
aa(lp1376
g1322
ag3
ag70
ag5
ag6
ag7
ag8
aa(lp1377
g1322
ag3
ag70
ag5
ag6
ag10
ag8
aa(lp1378
g1322
ag3
ag70
ag5
ag6
ag12
ag8
aa(lp1379
g1322
ag3
ag70
ag5
ag14
ag7
ag8
aa(lp1380
g1322
ag3
ag70
ag5
ag14
ag10
ag8
aa(lp1381
g1322
ag3
ag70
ag5
ag14
ag12
ag8
aa(lp1382
g1322
ag3
ag70
ag5
ag18
ag7
ag8
aa(lp1383
g1322
ag3
ag70
ag5
ag18
ag10
ag8
aa(lp1384
g1322
ag3
ag70
ag5
ag18
ag12
ag8
aa(lp1385
g1322
ag3
ag70
ag22
ag6
ag7
ag8
aa(lp1386
g1322
ag3
ag70
ag22
ag6
ag10
ag8
aa(lp1387
g1322
ag3
ag70
ag22
ag6
ag12
ag247
aa(lp1388
g1322
ag3
ag70
ag22
ag14
ag7
ag8
aa(lp1389
g1322
ag3
ag70
ag22
ag14
ag10
ag247
aa(lp1390
g1322
ag3
ag70
ag22
ag14
ag12
ag247
aa(lp1391
g1322
ag3
ag70
ag22
ag18
ag7
ag8
aa(lp1392
g1322
ag3
ag70
ag22
ag18
ag10
ag247
aa(lp1393
g1322
ag3
ag70
ag22
ag18
ag12
ag247
aa(lp1394
g1322
ag3
ag70
ag32
ag6
ag7
ag8
aa(lp1395
g1322
ag3
ag70
ag32
ag6
ag10
ag8
aa(lp1396
g1322
ag3
ag70
ag32
ag6
ag12
ag247
aa(lp1397
g1322
ag3
ag70
ag32
ag14
ag7
ag8
aa(lp1398
g1322
ag3
ag70
ag32
ag14
ag10
ag247
aa(lp1399
g1322
ag3
ag70
ag32
ag14
ag12
ag247
aa(lp1400
g1322
ag3
ag70
ag32
ag18
ag7
ag8
aa(lp1401
g1322
ag3
ag70
ag32
ag18
ag10
ag247
aa(lp1402
g1322
ag3
ag70
ag32
ag18
ag12
ag247
aa(lp1403
g1322
ag3
ag98
ag5
ag6
ag7
ag8
aa(lp1404
g1322
ag3
ag98
ag5
ag6
ag10
ag8
aa(lp1405
g1322
ag3
ag98
ag5
ag6
ag12
ag8
aa(lp1406
g1322
ag3
ag98
ag5
ag14
ag7
ag8
aa(lp1407
g1322
ag3
ag98
ag5
ag14
ag10
ag8
aa(lp1408
g1322
ag3
ag98
ag5
ag14
ag12
ag8
aa(lp1409
g1322
ag3
ag98
ag5
ag18
ag7
ag8
aa(lp1410
g1322
ag3
ag98
ag5
ag18
ag10
ag8
aa(lp1411
g1322
ag3
ag98
ag5
ag18
ag12
ag8
aa(lp1412
g1322
ag3
ag98
ag22
ag6
ag7
ag8
aa(lp1413
g1322
ag3
ag98
ag22
ag6
ag10
ag8
aa(lp1414
g1322
ag3
ag98
ag22
ag6
ag12
ag247
aa(lp1415
g1322
ag3
ag98
ag22
ag14
ag7
ag8
aa(lp1416
g1322
ag3
ag98
ag22
ag14
ag10
ag247
aa(lp1417
g1322
ag3
ag98
ag22
ag14
ag12
ag247
aa(lp1418
g1322
ag3
ag98
ag22
ag18
ag7
ag8
aa(lp1419
g1322
ag3
ag98
ag22
ag18
ag10
ag247
aa(lp1420
g1322
ag3
ag98
ag22
ag18
ag12
ag247
aa(lp1421
g1322
ag3
ag98
ag32
ag6
ag7
ag8
aa(lp1422
g1322
ag3
ag98
ag32
ag6
ag10
ag8
aa(lp1423
g1322
ag3
ag98
ag32
ag6
ag12
ag247
aa(lp1424
g1322
ag3
ag98
ag32
ag14
ag7
ag8
aa(lp1425
g1322
ag3
ag98
ag32
ag14
ag10
ag247
aa(lp1426
g1322
ag3
ag98
ag32
ag14
ag12
ag247
aa(lp1427
g1322
ag3
ag98
ag32
ag18
ag7
ag8
aa(lp1428
g1322
ag3
ag98
ag32
ag18
ag10
ag247
aa(lp1429
g1322
ag3
ag98
ag32
ag18
ag12
ag247
aa(lp1430
g1322
ag126
ag4
ag5
ag6
ag7
ag8
aa(lp1431
g1322
ag126
ag4
ag5
ag6
ag10
ag8
aa(lp1432
g1322
ag126
ag4
ag5
ag6
ag12
ag8
aa(lp1433
g1322
ag126
ag4
ag5
ag14
ag7
ag8
aa(lp1434
g1322
ag126
ag4
ag5
ag14
ag10
ag8
aa(lp1435
g1322
ag126
ag4
ag5
ag14
ag12
ag8
aa(lp1436
g1322
ag126
ag4
ag5
ag18
ag7
ag8
aa(lp1437
g1322
ag126
ag4
ag5
ag18
ag10
ag8
aa(lp1438
g1322
ag126
ag4
ag5
ag18
ag12
ag8
aa(lp1439
g1322
ag126
ag4
ag22
ag6
ag7
ag8
aa(lp1440
g1322
ag126
ag4
ag22
ag6
ag10
ag247
aa(lp1441
g1322
ag126
ag4
ag22
ag6
ag12
ag247
aa(lp1442
g1322
ag126
ag4
ag22
ag14
ag7
ag8
aa(lp1443
g1322
ag126
ag4
ag22
ag14
ag10
ag247
aa(lp1444
g1322
ag126
ag4
ag22
ag14
ag12
ag247
aa(lp1445
g1322
ag126
ag4
ag22
ag18
ag7
ag8
aa(lp1446
g1322
ag126
ag4
ag22
ag18
ag10
ag247
aa(lp1447
g1322
ag126
ag4
ag22
ag18
ag12
ag1121
aa(lp1448
g1322
ag126
ag4
ag32
ag6
ag7
ag8
aa(lp1449
g1322
ag126
ag4
ag32
ag6
ag10
ag8
aa(lp1450
g1322
ag126
ag4
ag32
ag6
ag12
ag8
aa(lp1451
g1322
ag126
ag4
ag32
ag14
ag7
ag8
aa(lp1452
g1322
ag126
ag4
ag32
ag14
ag10
ag247
aa(lp1453
g1322
ag126
ag4
ag32
ag14
ag12
ag247
aa(lp1454
g1322
ag126
ag4
ag32
ag18
ag7
ag8
aa(lp1455
g1322
ag126
ag4
ag32
ag18
ag10
ag247
aa(lp1456
g1322
ag126
ag4
ag32
ag18
ag12
ag1121
aa(lp1457
g1322
ag126
ag42
ag5
ag6
ag7
ag8
aa(lp1458
g1322
ag126
ag42
ag5
ag6
ag10
ag8
aa(lp1459
g1322
ag126
ag42
ag5
ag6
ag12
ag8
aa(lp1460
g1322
ag126
ag42
ag5
ag14
ag7
ag8
aa(lp1461
g1322
ag126
ag42
ag5
ag14
ag10
ag8
aa(lp1462
g1322
ag126
ag42
ag5
ag14
ag12
ag8
aa(lp1463
g1322
ag126
ag42
ag5
ag18
ag7
ag8
aa(lp1464
g1322
ag126
ag42
ag5
ag18
ag10
ag8
aa(lp1465
g1322
ag126
ag42
ag5
ag18
ag12
ag8
aa(lp1466
g1322
ag126
ag42
ag22
ag6
ag7
ag8
aa(lp1467
g1322
ag126
ag42
ag22
ag6
ag10
ag247
aa(lp1468
g1322
ag126
ag42
ag22
ag6
ag12
ag247
aa(lp1469
g1322
ag126
ag42
ag22
ag14
ag7
ag8
aa(lp1470
g1322
ag126
ag42
ag22
ag14
ag10
ag247
aa(lp1471
g1322
ag126
ag42
ag22
ag14
ag12
ag247
aa(lp1472
g1322
ag126
ag42
ag22
ag18
ag7
ag8
aa(lp1473
g1322
ag126
ag42
ag22
ag18
ag10
ag247
aa(lp1474
g1322
ag126
ag42
ag22
ag18
ag12
ag1121
aa(lp1475
g1322
ag126
ag42
ag32
ag6
ag7
ag8
aa(lp1476
g1322
ag126
ag42
ag32
ag6
ag10
ag247
aa(lp1477
g1322
ag126
ag42
ag32
ag6
ag12
ag247
aa(lp1478
g1322
ag126
ag42
ag32
ag14
ag7
ag8
aa(lp1479
g1322
ag126
ag42
ag32
ag14
ag10
ag247
aa(lp1480
g1322
ag126
ag42
ag32
ag14
ag12
ag1121
aa(lp1481
g1322
ag126
ag42
ag32
ag18
ag7
ag8
aa(lp1482
g1322
ag126
ag42
ag32
ag18
ag10
ag247
aa(lp1483
g1322
ag126
ag42
ag32
ag18
ag12
ag1121
aa(lp1484
g1322
ag126
ag70
ag5
ag6
ag7
ag8
aa(lp1485
g1322
ag126
ag70
ag5
ag6
ag10
ag8
aa(lp1486
g1322
ag126
ag70
ag5
ag6
ag12
ag8
aa(lp1487
g1322
ag126
ag70
ag5
ag14
ag7
ag8
aa(lp1488
g1322
ag126
ag70
ag5
ag14
ag10
ag8
aa(lp1489
g1322
ag126
ag70
ag5
ag14
ag12
ag8
aa(lp1490
g1322
ag126
ag70
ag5
ag18
ag7
ag8
aa(lp1491
g1322
ag126
ag70
ag5
ag18
ag10
ag8
aa(lp1492
g1322
ag126
ag70
ag5
ag18
ag12
ag8
aa(lp1493
g1322
ag126
ag70
ag22
ag6
ag7
ag8
aa(lp1494
g1322
ag126
ag70
ag22
ag6
ag10
ag247
aa(lp1495
g1322
ag126
ag70
ag22
ag6
ag12
ag247
aa(lp1496
g1322
ag126
ag70
ag22
ag14
ag7
ag8
aa(lp1497
g1322
ag126
ag70
ag22
ag14
ag10
ag247
aa(lp1498
g1322
ag126
ag70
ag22
ag14
ag12
ag1121
aa(lp1499
g1322
ag126
ag70
ag22
ag18
ag7
ag8
aa(lp1500
g1322
ag126
ag70
ag22
ag18
ag10
ag247
aa(lp1501
g1322
ag126
ag70
ag22
ag18
ag12
ag1121
aa(lp1502
g1322
ag126
ag70
ag32
ag6
ag7
ag8
aa(lp1503
g1322
ag126
ag70
ag32
ag6
ag10
ag247
aa(lp1504
g1322
ag126
ag70
ag32
ag6
ag12
ag247
aa(lp1505
g1322
ag126
ag70
ag32
ag14
ag7
ag8
aa(lp1506
g1322
ag126
ag70
ag32
ag14
ag10
ag247
aa(lp1507
g1322
ag126
ag70
ag32
ag14
ag12
ag1121
aa(lp1508
g1322
ag126
ag70
ag32
ag18
ag7
ag8
aa(lp1509
g1322
ag126
ag70
ag32
ag18
ag10
ag247
aa(lp1510
g1322
ag126
ag70
ag32
ag18
ag12
ag1121
aa(lp1511
g1322
ag126
ag98
ag5
ag6
ag7
ag8
aa(lp1512
g1322
ag126
ag98
ag5
ag6
ag10
ag8
aa(lp1513
g1322
ag126
ag98
ag5
ag6
ag12
ag8
aa(lp1514
g1322
ag126
ag98
ag5
ag14
ag7
ag8
aa(lp1515
g1322
ag126
ag98
ag5
ag14
ag10
ag8
aa(lp1516
g1322
ag126
ag98
ag5
ag14
ag12
ag8
aa(lp1517
g1322
ag126
ag98
ag5
ag18
ag7
ag8
aa(lp1518
g1322
ag126
ag98
ag5
ag18
ag10
ag8
aa(lp1519
g1322
ag126
ag98
ag5
ag18
ag12
ag8
aa(lp1520
g1322
ag126
ag98
ag22
ag6
ag7
ag8
aa(lp1521
g1322
ag126
ag98
ag22
ag6
ag10
ag247
aa(lp1522
g1322
ag126
ag98
ag22
ag6
ag12
ag247
aa(lp1523
g1322
ag126
ag98
ag22
ag14
ag7
ag8
aa(lp1524
g1322
ag126
ag98
ag22
ag14
ag10
ag247
aa(lp1525
g1322
ag126
ag98
ag22
ag14
ag12
ag1121
aa(lp1526
g1322
ag126
ag98
ag22
ag18
ag7
ag8
aa(lp1527
g1322
ag126
ag98
ag22
ag18
ag10
ag247
aa(lp1528
g1322
ag126
ag98
ag22
ag18
ag12
ag1121
aa(lp1529
g1322
ag126
ag98
ag32
ag6
ag7
ag8
aa(lp1530
g1322
ag126
ag98
ag32
ag6
ag10
ag247
aa(lp1531
g1322
ag126
ag98
ag32
ag6
ag12
ag247
aa(lp1532
g1322
ag126
ag98
ag32
ag14
ag7
ag8
aa(lp1533
g1322
ag126
ag98
ag32
ag14
ag10
ag247
aa(lp1534
g1322
ag126
ag98
ag32
ag14
ag12
ag1121
aa(lp1535
g1322
ag126
ag98
ag32
ag18
ag7
ag8
aa(lp1536
g1322
ag126
ag98
ag32
ag18
ag10
ag247
aa(lp1537
g1322
ag126
ag98
ag32
ag18
ag12
ag1121
aa(lp1538
g1322
ag235
ag4
ag5
ag6
ag7
ag8
aa(lp1539
g1322
ag235
ag4
ag5
ag6
ag10
ag8
aa(lp1540
g1322
ag235
ag4
ag5
ag6
ag12
ag8
aa(lp1541
g1322
ag235
ag4
ag5
ag14
ag7
ag8
aa(lp1542
g1322
ag235
ag4
ag5
ag14
ag10
ag8
aa(lp1543
g1322
ag235
ag4
ag5
ag14
ag12
ag8
aa(lp1544
g1322
ag235
ag4
ag5
ag18
ag7
ag8
aa(lp1545
g1322
ag235
ag4
ag5
ag18
ag10
ag8
aa(lp1546
g1322
ag235
ag4
ag5
ag18
ag12
ag8
aa(lp1547
g1322
ag235
ag4
ag22
ag6
ag7
ag8
aa(lp1548
g1322
ag235
ag4
ag22
ag6
ag10
ag247
aa(lp1549
g1322
ag235
ag4
ag22
ag6
ag12
ag1224
aa(lp1550
g1322
ag235
ag4
ag22
ag14
ag7
ag8
aa(lp1551
g1322
ag235
ag4
ag22
ag14
ag10
ag247
aa(lp1552
g1322
ag235
ag4
ag22
ag14
ag12
ag1224
aa(lp1553
g1322
ag235
ag4
ag22
ag18
ag7
ag8
aa(lp1554
g1322
ag235
ag4
ag22
ag18
ag10
ag1224
aa(lp1555
g1322
ag235
ag4
ag22
ag18
ag12
ag1121
aa(lp1556
g1322
ag235
ag4
ag32
ag6
ag7
ag8
aa(lp1557
g1322
ag235
ag4
ag32
ag6
ag10
ag8
aa(lp1558
g1322
ag235
ag4
ag32
ag6
ag12
ag8
aa(lp1559
g1322
ag235
ag4
ag32
ag14
ag7
ag8
aa(lp1560
g1322
ag235
ag4
ag32
ag14
ag10
ag247
aa(lp1561
g1322
ag235
ag4
ag32
ag14
ag12
ag1224
aa(lp1562
g1322
ag235
ag4
ag32
ag18
ag7
ag8
aa(lp1563
g1322
ag235
ag4
ag32
ag18
ag10
ag1224
aa(lp1564
g1322
ag235
ag4
ag32
ag18
ag12
ag1121
aa(lp1565
g1322
ag235
ag42
ag5
ag6
ag7
ag8
aa(lp1566
g1322
ag235
ag42
ag5
ag6
ag10
ag8
aa(lp1567
g1322
ag235
ag42
ag5
ag6
ag12
ag8
aa(lp1568
g1322
ag235
ag42
ag5
ag14
ag7
ag8
aa(lp1569
g1322
ag235
ag42
ag5
ag14
ag10
ag8
aa(lp1570
g1322
ag235
ag42
ag5
ag14
ag12
ag8
aa(lp1571
g1322
ag235
ag42
ag5
ag18
ag7
ag8
aa(lp1572
g1322
ag235
ag42
ag5
ag18
ag10
ag8
aa(lp1573
g1322
ag235
ag42
ag5
ag18
ag12
ag8
aa(lp1574
g1322
ag235
ag42
ag22
ag6
ag7
ag8
aa(lp1575
g1322
ag235
ag42
ag22
ag6
ag10
ag247
aa(lp1576
g1322
ag235
ag42
ag22
ag6
ag12
ag1224
aa(lp1577
g1322
ag235
ag42
ag22
ag14
ag7
ag8
aa(lp1578
g1322
ag235
ag42
ag22
ag14
ag10
ag247
aa(lp1579
g1322
ag235
ag42
ag22
ag14
ag12
ag1224
aa(lp1580
g1322
ag235
ag42
ag22
ag18
ag7
ag8
aa(lp1581
g1322
ag235
ag42
ag22
ag18
ag10
ag1224
aa(lp1582
g1322
ag235
ag42
ag22
ag18
ag12
ag1121
aa(lp1583
g1322
ag235
ag42
ag32
ag6
ag7
ag8
aa(lp1584
g1322
ag235
ag42
ag32
ag6
ag10
ag247
aa(lp1585
g1322
ag235
ag42
ag32
ag6
ag12
ag1224
aa(lp1586
g1322
ag235
ag42
ag32
ag14
ag7
ag8
aa(lp1587
g1322
ag235
ag42
ag32
ag14
ag10
ag1224
aa(lp1588
g1322
ag235
ag42
ag32
ag14
ag12
ag1121
aa(lp1589
g1322
ag235
ag42
ag32
ag18
ag7
ag8
aa(lp1590
g1322
ag235
ag42
ag32
ag18
ag10
ag1224
aa(lp1591
g1322
ag235
ag42
ag32
ag18
ag12
ag1121
aa(lp1592
g1322
ag235
ag70
ag5
ag6
ag7
ag8
aa(lp1593
g1322
ag235
ag70
ag5
ag6
ag10
ag8
aa(lp1594
g1322
ag235
ag70
ag5
ag6
ag12
ag8
aa(lp1595
g1322
ag235
ag70
ag5
ag14
ag7
ag8
aa(lp1596
g1322
ag235
ag70
ag5
ag14
ag10
ag8
aa(lp1597
g1322
ag235
ag70
ag5
ag14
ag12
ag8
aa(lp1598
g1322
ag235
ag70
ag5
ag18
ag7
ag8
aa(lp1599
g1322
ag235
ag70
ag5
ag18
ag10
ag8
aa(lp1600
g1322
ag235
ag70
ag5
ag18
ag12
ag8
aa(lp1601
g1322
ag235
ag70
ag22
ag6
ag7
ag8
aa(lp1602
g1322
ag235
ag70
ag22
ag6
ag10
ag247
aa(lp1603
g1322
ag235
ag70
ag22
ag6
ag12
ag1224
aa(lp1604
g1322
ag235
ag70
ag22
ag14
ag7
ag8
aa(lp1605
g1322
ag235
ag70
ag22
ag14
ag10
ag1224
aa(lp1606
g1322
ag235
ag70
ag22
ag14
ag12
ag1121
aa(lp1607
g1322
ag235
ag70
ag22
ag18
ag7
ag8
aa(lp1608
g1322
ag235
ag70
ag22
ag18
ag10
ag1224
aa(lp1609
g1322
ag235
ag70
ag22
ag18
ag12
ag1121
aa(lp1610
g1322
ag235
ag70
ag32
ag6
ag7
ag8
aa(lp1611
g1322
ag235
ag70
ag32
ag6
ag10
ag247
aa(lp1612
g1322
ag235
ag70
ag32
ag6
ag12
ag1224
aa(lp1613
g1322
ag235
ag70
ag32
ag14
ag7
ag8
aa(lp1614
g1322
ag235
ag70
ag32
ag14
ag10
ag1224
aa(lp1615
g1322
ag235
ag70
ag32
ag14
ag12
ag1121
aa(lp1616
g1322
ag235
ag70
ag32
ag18
ag7
ag8
aa(lp1617
g1322
ag235
ag70
ag32
ag18
ag10
ag1224
aa(lp1618
g1322
ag235
ag70
ag32
ag18
ag12
ag1121
aa(lp1619
g1322
ag235
ag98
ag5
ag6
ag7
ag8
aa(lp1620
g1322
ag235
ag98
ag5
ag6
ag10
ag8
aa(lp1621
g1322
ag235
ag98
ag5
ag6
ag12
ag8
aa(lp1622
g1322
ag235
ag98
ag5
ag14
ag7
ag8
aa(lp1623
g1322
ag235
ag98
ag5
ag14
ag10
ag8
aa(lp1624
g1322
ag235
ag98
ag5
ag14
ag12
ag8
aa(lp1625
g1322
ag235
ag98
ag5
ag18
ag7
ag8
aa(lp1626
g1322
ag235
ag98
ag5
ag18
ag10
ag8
aa(lp1627
g1322
ag235
ag98
ag5
ag18
ag12
ag8
aa(lp1628
g1322
ag235
ag98
ag22
ag6
ag7
ag8
aa(lp1629
g1322
ag235
ag98
ag22
ag6
ag10
ag247
aa(lp1630
g1322
ag235
ag98
ag22
ag6
ag12
ag1224
aa(lp1631
g1322
ag235
ag98
ag22
ag14
ag7
ag8
aa(lp1632
g1322
ag235
ag98
ag22
ag14
ag10
ag1224
aa(lp1633
g1322
ag235
ag98
ag22
ag14
ag12
ag1121
aa(lp1634
g1322
ag235
ag98
ag22
ag18
ag7
ag8
aa(lp1635
g1322
ag235
ag98
ag22
ag18
ag10
ag1224
aa(lp1636
g1322
ag235
ag98
ag22
ag18
ag12
ag1121
aa(lp1637
g1322
ag235
ag98
ag32
ag6
ag7
ag8
aa(lp1638
g1322
ag235
ag98
ag32
ag6
ag10
ag247
aa(lp1639
g1322
ag235
ag98
ag32
ag6
ag12
ag1224
aa(lp1640
g1322
ag235
ag98
ag32
ag14
ag7
ag8
aa(lp1641
g1322
ag235
ag98
ag32
ag14
ag10
ag1224
aa(lp1642
g1322
ag235
ag98
ag32
ag14
ag12
ag1121
aa(lp1643
g1322
ag235
ag98
ag32
ag18
ag7
ag8
aa(lp1644
g1322
ag235
ag98
ag32
ag18
ag10
ag1224
aa(lp1645
g1322
ag235
ag98
ag32
ag18
ag12
ag1121
aa(lp1646
g1322
ag345
ag4
ag5
ag6
ag7
ag8
aa(lp1647
g1322
ag345
ag4
ag5
ag6
ag10
ag8
aa(lp1648
g1322
ag345
ag4
ag5
ag6
ag12
ag8
aa(lp1649
g1322
ag345
ag4
ag5
ag14
ag7
ag8
aa(lp1650
g1322
ag345
ag4
ag5
ag14
ag10
ag8
aa(lp1651
g1322
ag345
ag4
ag5
ag14
ag12
ag8
aa(lp1652
g1322
ag345
ag4
ag5
ag18
ag7
ag8
aa(lp1653
g1322
ag345
ag4
ag5
ag18
ag10
ag8
aa(lp1654
g1322
ag345
ag4
ag5
ag18
ag12
ag8
aa(lp1655
g1322
ag345
ag4
ag22
ag6
ag7
ag8
aa(lp1656
g1322
ag345
ag4
ag22
ag6
ag10
ag247
aa(lp1657
g1322
ag345
ag4
ag22
ag6
ag12
ag1224
aa(lp1658
g1322
ag345
ag4
ag22
ag14
ag7
ag8
aa(lp1659
g1322
ag345
ag4
ag22
ag14
ag10
ag247
aa(lp1660
g1322
ag345
ag4
ag22
ag14
ag12
ag1224
aa(lp1661
g1322
ag345
ag4
ag22
ag18
ag7
ag8
aa(lp1662
g1322
ag345
ag4
ag22
ag18
ag10
ag1224
aa(lp1663
g1322
ag345
ag4
ag22
ag18
ag12
ag1121
aa(lp1664
g1322
ag345
ag4
ag32
ag6
ag7
ag8
aa(lp1665
g1322
ag345
ag4
ag32
ag6
ag10
ag8
aa(lp1666
g1322
ag345
ag4
ag32
ag6
ag12
ag8
aa(lp1667
g1322
ag345
ag4
ag32
ag14
ag7
ag8
aa(lp1668
g1322
ag345
ag4
ag32
ag14
ag10
ag247
aa(lp1669
g1322
ag345
ag4
ag32
ag14
ag12
ag1224
aa(lp1670
g1322
ag345
ag4
ag32
ag18
ag7
ag8
aa(lp1671
g1322
ag345
ag4
ag32
ag18
ag10
ag1224
aa(lp1672
g1322
ag345
ag4
ag32
ag18
ag12
ag1121
aa(lp1673
g1322
ag345
ag42
ag5
ag6
ag7
ag8
aa(lp1674
g1322
ag345
ag42
ag5
ag6
ag10
ag8
aa(lp1675
g1322
ag345
ag42
ag5
ag6
ag12
ag8
aa(lp1676
g1322
ag345
ag42
ag5
ag14
ag7
ag8
aa(lp1677
g1322
ag345
ag42
ag5
ag14
ag10
ag8
aa(lp1678
g1322
ag345
ag42
ag5
ag14
ag12
ag8
aa(lp1679
g1322
ag345
ag42
ag5
ag18
ag7
ag8
aa(lp1680
g1322
ag345
ag42
ag5
ag18
ag10
ag8
aa(lp1681
g1322
ag345
ag42
ag5
ag18
ag12
ag8
aa(lp1682
g1322
ag345
ag42
ag22
ag6
ag7
ag8
aa(lp1683
g1322
ag345
ag42
ag22
ag6
ag10
ag247
aa(lp1684
g1322
ag345
ag42
ag22
ag6
ag12
ag1224
aa(lp1685
g1322
ag345
ag42
ag22
ag14
ag7
ag8
aa(lp1686
g1322
ag345
ag42
ag22
ag14
ag10
ag247
aa(lp1687
g1322
ag345
ag42
ag22
ag14
ag12
ag1224
aa(lp1688
g1322
ag345
ag42
ag22
ag18
ag7
ag8
aa(lp1689
g1322
ag345
ag42
ag22
ag18
ag10
ag1224
aa(lp1690
g1322
ag345
ag42
ag22
ag18
ag12
ag1121
aa(lp1691
g1322
ag345
ag42
ag32
ag6
ag7
ag8
aa(lp1692
g1322
ag345
ag42
ag32
ag6
ag10
ag247
aa(lp1693
g1322
ag345
ag42
ag32
ag6
ag12
ag1224
aa(lp1694
g1322
ag345
ag42
ag32
ag14
ag7
ag8
aa(lp1695
g1322
ag345
ag42
ag32
ag14
ag10
ag1224
aa(lp1696
g1322
ag345
ag42
ag32
ag14
ag12
ag1121
aa(lp1697
g1322
ag345
ag42
ag32
ag18
ag7
ag8
aa(lp1698
g1322
ag345
ag42
ag32
ag18
ag10
ag1224
aa(lp1699
g1322
ag345
ag42
ag32
ag18
ag12
ag1121
aa(lp1700
g1322
ag345
ag70
ag5
ag6
ag7
ag8
aa(lp1701
g1322
ag345
ag70
ag5
ag6
ag10
ag8
aa(lp1702
g1322
ag345
ag70
ag5
ag6
ag12
ag8
aa(lp1703
g1322
ag345
ag70
ag5
ag14
ag7
ag8
aa(lp1704
g1322
ag345
ag70
ag5
ag14
ag10
ag8
aa(lp1705
g1322
ag345
ag70
ag5
ag14
ag12
ag8
aa(lp1706
g1322
ag345
ag70
ag5
ag18
ag7
ag8
aa(lp1707
g1322
ag345
ag70
ag5
ag18
ag10
ag8
aa(lp1708
g1322
ag345
ag70
ag5
ag18
ag12
ag8
aa(lp1709
g1322
ag345
ag70
ag22
ag6
ag7
ag8
aa(lp1710
g1322
ag345
ag70
ag22
ag6
ag10
ag247
aa(lp1711
g1322
ag345
ag70
ag22
ag6
ag12
ag1224
aa(lp1712
g1322
ag345
ag70
ag22
ag14
ag7
ag8
aa(lp1713
g1322
ag345
ag70
ag22
ag14
ag10
ag1224
aa(lp1714
g1322
ag345
ag70
ag22
ag14
ag12
ag1121
aa(lp1715
g1322
ag345
ag70
ag22
ag18
ag7
ag8
aa(lp1716
g1322
ag345
ag70
ag22
ag18
ag10
ag1224
aa(lp1717
g1322
ag345
ag70
ag22
ag18
ag12
ag1121
aa(lp1718
g1322
ag345
ag70
ag32
ag6
ag7
ag8
aa(lp1719
g1322
ag345
ag70
ag32
ag6
ag10
ag247
aa(lp1720
g1322
ag345
ag70
ag32
ag6
ag12
ag1224
aa(lp1721
g1322
ag345
ag70
ag32
ag14
ag7
ag8
aa(lp1722
g1322
ag345
ag70
ag32
ag14
ag10
ag1224
aa(lp1723
g1322
ag345
ag70
ag32
ag14
ag12
ag1121
aa(lp1724
g1322
ag345
ag70
ag32
ag18
ag7
ag8
aa(lp1725
g1322
ag345
ag70
ag32
ag18
ag10
ag1224
aa(lp1726
g1322
ag345
ag70
ag32
ag18
ag12
ag1121
aa(lp1727
g1322
ag345
ag98
ag5
ag6
ag7
ag8
aa(lp1728
g1322
ag345
ag98
ag5
ag6
ag10
ag8
aa(lp1729
g1322
ag345
ag98
ag5
ag6
ag12
ag8
aa(lp1730
g1322
ag345
ag98
ag5
ag14
ag7
ag8
aa(lp1731
g1322
ag345
ag98
ag5
ag14
ag10
ag8
aa(lp1732
g1322
ag345
ag98
ag5
ag14
ag12
ag8
aa(lp1733
g1322
ag345
ag98
ag5
ag18
ag7
ag8
aa(lp1734
g1322
ag345
ag98
ag5
ag18
ag10
ag8
aa(lp1735
g1322
ag345
ag98
ag5
ag18
ag12
ag8
aa(lp1736
g1322
ag345
ag98
ag22
ag6
ag7
ag8
aa(lp1737
g1322
ag345
ag98
ag22
ag6
ag10
ag247
aa(lp1738
g1322
ag345
ag98
ag22
ag6
ag12
ag1224
aa(lp1739
g1322
ag345
ag98
ag22
ag14
ag7
ag8
aa(lp1740
g1322
ag345
ag98
ag22
ag14
ag10
ag1224
aa(lp1741
g1322
ag345
ag98
ag22
ag14
ag12
ag1121
aa(lp1742
g1322
ag345
ag98
ag22
ag18
ag7
ag8
aa(lp1743
g1322
ag345
ag98
ag22
ag18
ag10
ag1224
aa(lp1744
g1322
ag345
ag98
ag22
ag18
ag12
ag1121
aa(lp1745
g1322
ag345
ag98
ag32
ag6
ag7
ag8
aa(lp1746
g1322
ag345
ag98
ag32
ag6
ag10
ag247
aa(lp1747
g1322
ag345
ag98
ag32
ag6
ag12
ag1224
aa(lp1748
g1322
ag345
ag98
ag32
ag14
ag7
ag8
aa(lp1749
g1322
ag345
ag98
ag32
ag14
ag10
ag1224
aa(lp1750
g1322
ag345
ag98
ag32
ag14
ag12
ag1121
aa(lp1751
g1322
ag345
ag98
ag32
ag18
ag7
ag8
aa(lp1752
g1322
ag345
ag98
ag32
ag18
ag10
ag1224
aa(lp1753
g1322
ag345
ag98
ag32
ag18
ag12
ag1121
aa(lp1754
a.