(lp0
(lp1
S'age_mid'
p2
aS'edu_int'
p3
aS'hus_edu_mid'
p4
aS'number_of_children_mid'
p5
aS'rel_islam'
p6
aS'not_working_wife'
p7
aS'occupation_cat_2'
p8
aS'stnd_of_living_med'
p9
aS'media_good'
p10
aS'no_conception'
p11
aa(lp12
S'age_mature'
p13
aS'edu_low'
p14
ag4
aS'number_of_children_high'
p15
ag6
ag7
aS'occupation_cat_3'
p16
aS'stnd_of_living_high'
p17
ag10
ag11
aa(lp18
g13
ag3
ag4
ag15
ag6
ag7
ag16
ag17
ag10
ag11
aa(lp19
g13
aS'edu_mid'
p20
aS'hus_edu_int'
p21
ag15
ag6
ag7
ag16
ag9
ag10
ag11
aa(lp22
g13
ag20
ag4
ag15
ag6
ag7
ag16
aS'stnd_of_living_int'
p23
ag10
ag11
aa(lp24
S'age_low'
p25
aS'edu_high'
p26
aS'hus_edu_high'
p27
aS'number_of_children_low'
p28
ag6
ag7
ag16
ag9
ag10
ag11
aa(lp29
g13
ag3
ag4
ag15
ag6
ag7
ag16
ag23
ag10
ag11
aa(lp30
g25
ag20
ag4
ag28
ag6
aS'working_wife'
p31
ag16
ag23
ag10
ag11
aa(lp32
g2
ag3
ag4
ag5
ag6
ag7
ag16
ag17
ag10
ag11
aa(lp33
g13
ag14
aS'hus_edu_low'
p34
ag15
ag6
ag7
ag8
ag23
aS'media_not_good'
p35
ag11
aa(lp36
g13
ag14
ag4
ag28
ag6
ag31
ag16
ag9
ag35
ag11
aa(lp37
g13
ag14
ag27
ag5
ag6
ag7
aS'occupation_cat_1'
p38
ag9
ag10
ag11
aa(lp39
g13
ag26
ag27
ag28
ag6
ag31
ag38
ag17
ag10
ag11
aa(lp40
g13
ag3
ag27
ag28
ag6
ag31
ag16
ag9
ag10
ag11
aa(lp41
g13
ag20
ag27
ag28
ag6
ag7
ag8
ag9
ag10
ag11
aa(lp42
g2
ag3
ag27
ag28
ag6
ag7
aS'occupation_cat_4'
p43
aS'stnd_of_living_low'
p44
ag10
ag11
aa(lp45
g13
ag14
ag34
ag15
ag6
ag7
ag8
ag17
ag10
ag11
aa(lp46
g13
ag3
ag21
ag15
ag6
ag7
ag8
ag17
ag10
ag11
aa(lp47
g13
ag3
ag21
ag15
ag6
ag7
ag8
ag9
ag10
ag11
aa(lp48
g13
ag3
ag34
ag15
ag6
ag7
ag8
ag44
ag35
ag11
aa(lp49
g2
ag20
ag27
ag28
ag6
ag31
ag43
ag44
ag10
ag11
aa(lp50
g2
ag20
ag27
ag28
ag6
ag31
ag16
ag44
ag10
ag11
aa(lp51
g13
ag26
ag27
ag28
aS'rel_not_islam'
p52
ag7
ag38
ag17
ag10
ag11
aa(lp53
g13
ag26
ag27
ag28
ag6
ag7
ag38
ag17
ag10
ag11
aa(lp54
g13
ag26
ag27
ag15
ag6
ag7
ag38
ag17
ag10
ag11
aa(lp55
g13
ag3
ag27
ag15
ag6
ag7
ag16
ag9
ag10
ag11
aa(lp56
g13
ag26
ag27
ag28
ag6
ag31
ag38
ag17
ag10
ag11
aa(lp57
g2
ag26
ag27
ag28
ag6
ag31
ag38
ag17
ag10
ag11
aa(lp58
g2
ag26
ag27
ag28
ag6
ag31
ag8
ag23
ag10
ag11
aa(lp59
g13
ag14
ag21
ag15
ag6
ag7
ag8
ag17
ag10
ag11
aa(lp60
g2
ag20
ag27
ag28
ag6
ag7
ag38
ag17
ag10
ag11
aa(lp61
g2
ag26
ag27
ag28
ag6
ag7
ag16
ag23
ag10
ag11
aa(lp62
g2
ag3
ag27
ag28
ag6
ag31
ag38
ag23
ag10
ag11
aa(lp63
g2
ag3
ag21
ag28
ag6
ag7
ag16
ag44
ag10
ag11
aa(lp64
g2
ag3
ag4
ag28
ag6
ag7
ag16
ag9
ag10
ag11
aa(lp65
g13
ag14
ag4
ag15
ag6
ag7
ag16
ag23
ag35
ag11
aa(lp66
g13
ag14
ag21
ag15
ag6
ag31
ag16
ag44
ag10
ag11
aa(lp67
g2
ag20
ag4
ag5
ag6
ag7
ag16
ag23
ag10
ag11
aa(lp68
g13
ag3
ag21
ag5
ag6
ag7
ag16
ag17
ag10
ag11
aa(lp69
g2
ag3
ag21
ag28
ag6
ag7
ag8
ag17
ag10
ag11
aa(lp70
g2
ag14
ag34
ag5
ag6
ag7
ag16
ag44
ag10
ag11
aa(lp71
g13
ag3
ag4
ag28
ag6
ag31
ag38
ag9
ag10
ag11
aa(lp72
g13
ag3
ag27
ag28
ag6
ag7
ag38
ag9
ag10
ag11
aa(lp73
g13
ag26
ag27
ag28
ag52
ag7
ag38
ag17
ag10
ag11
aa(lp74
g2
ag3
ag21
ag28
ag6
ag7
ag16
ag23
ag10
ag11
aa(lp75
g2
ag14
ag27
ag28
ag6
ag7
ag8
ag44
ag10
ag11
aa(lp76
g2
ag26
ag27
ag28
ag6
ag7
ag8
ag9
ag10
ag11
aa(lp77
g13
ag26
ag27
ag28
ag6
ag7
ag8
ag17
ag10
ag11
aa(lp78
g2
ag26
ag27
ag28
ag6
ag7
ag38
ag17
ag10
ag11
aa(lp79
g2
ag26
ag27
ag28
ag6
ag31
ag38
ag17
ag10
ag11
aa(lp80
g2
ag26
ag27
ag28
ag6
ag31
ag38
ag17
ag10
ag11
aa(lp81
g13
ag26
ag27
ag15
ag52
ag7
ag8
ag17
ag10
ag11
aa(lp82
g13
ag20
ag27
ag15
ag6
ag7
ag16
ag9
ag10
ag11
aa(lp83
g2
ag26
ag27
ag28
ag52
ag31
ag8
ag9
ag10
ag11
aa(lp84
g13
ag3
ag27
ag15
ag6
ag7
ag8
ag9
ag10
ag11
aa(lp85
g25
ag3
ag21
ag28
ag6
ag7
ag8
ag23
ag35
ag11
aa(lp86
g13
ag26
ag27
ag15
ag6
ag31
ag38
ag17
ag10
ag11
aa(lp87
g13
ag20
ag27
ag15
ag6
ag7
ag8
ag44
ag10
ag11
aa(lp88
g25
ag3
ag4
ag28
ag6
ag7
ag16
ag17
ag10
ag11
aa(lp89
g13
ag26
ag27
ag15
ag6
ag7
ag38
ag23
ag10
ag11
aa(lp90
g13
ag20
ag4
ag15
ag6
ag7
ag16
ag9
ag10
ag11
aa(lp91
g25
ag3
ag4
ag28
ag6
ag7
ag8
ag9
ag10
ag11
aa(lp92
g13
ag14
ag21
ag28
ag6
ag31
ag38
ag9
ag10
ag11
aa(lp93
g25
ag3
ag4
ag28
ag6
ag7
ag8
ag44
ag10
ag11
aa(lp94
g2
ag3
ag27
ag28
ag6
ag31
ag38
ag9
ag10
ag11
aa(lp95
g2
ag3
ag27
ag28
ag6
ag7
ag16
ag44
ag10
ag11
aa(lp96
g13
ag26
ag21
ag15
ag6
ag7
ag16
ag9
ag10
ag11
aa(lp97
g2
ag3
ag4
ag5
ag6
ag7
ag16
ag44
ag10
ag11
aa(lp98
g25
ag20
ag27
ag28
ag6
ag7
ag16
ag17
ag10
ag11
aa(lp99
g2
ag26
ag27
ag28
ag6
ag31
ag16
ag9
ag10
ag11
aa(lp100
g13
ag3
ag4
ag5
ag6
ag7
ag8
ag9
ag10
ag11
aa(lp101
g13
ag3
ag4
ag15
ag6
ag7
ag38
ag17
ag10
ag11
aa(lp102
g2
ag3
ag4
ag28
ag6
ag7
ag38
ag44
ag10
ag11
aa(lp103
g2
ag3
ag4
ag28
ag6
ag7
ag38
ag23
ag10
ag11
aa(lp104
g25
ag20
ag27
ag28
ag6
ag7
ag8
ag9
ag10
ag11
aa(lp105
g25
ag20
ag27
ag28
ag6
ag7
ag8
ag9
ag10
ag11
aa(lp106
g2
ag26
ag27
ag28
ag6
ag31
ag8
ag17
ag10
ag11
aa(lp107
g13
ag20
ag27
ag5
ag6
ag7
ag38
ag17
ag10
ag11
aa(lp108
g2
ag3
ag4
ag28
ag6
ag7
ag16
ag23
ag10
ag11
aa(lp109
g13
ag26
ag27
ag28
ag6
ag31
ag38
ag17
ag10
ag11
aa(lp110
g2
ag26
ag27
ag28
ag52
ag7
ag38
ag17
ag10
ag11
aa(lp111
g13
ag26
ag27
ag15
ag52
ag31
ag38
ag17
ag10
ag11
aa(lp112
g2
ag3
ag27
ag28
ag6
ag31
ag43
ag17
ag10
ag11
aa(lp113
g2
ag26
ag27
ag28
ag52
ag31
ag38
ag17
ag10
ag11
aa(lp114
g2
ag26
ag27
ag28
ag6
ag7
ag38
ag17
ag10
ag11
aa(lp115
g2
ag26
ag27
ag28
ag6
ag7
ag38
ag17
ag10
ag11
aa(lp116
g2
ag26
ag27
ag28
ag6
ag7
ag38
ag9
ag10
ag11
aa(lp117
g2
ag26
ag27
ag5
ag52
ag7
ag38
ag17
ag10
ag11
aa(lp118
g2
ag3
ag27
ag5
ag6
ag7
ag38
ag17
ag10
ag11
aa(lp119
g2
ag3
ag21
ag5
ag6
ag31
ag8
ag44
ag10
ag11
aa(lp120
g2
ag3
ag4
ag28
ag6
ag7
ag8
ag44
ag10
ag11
aa(lp121
g13
ag3
ag27
ag15
ag6
ag7
ag38
ag17
ag10
ag11
aa(lp122
g2
ag3
ag21
ag5
ag6
ag7
ag8
ag44
ag10
ag11
aa(lp123
g13
ag3
ag21
ag28
ag6
ag31
ag16
ag23
ag10
ag11
aa(lp124
g13
ag14
ag21
ag5
ag6
ag7
ag38
ag9
ag10
ag11
aa(lp125
g13
ag14
ag4
ag15
ag6
ag7
ag8
ag9
ag35
ag11
aa(lp126
g13
ag3
ag4
ag28
ag6
ag31
ag8
ag9
ag10
ag11
aa(lp127
g2
ag26
ag27
ag15
ag6
ag7
ag8
ag44
ag10
ag11
aa(lp128
g25
ag3
ag21
ag5
ag6
ag7
ag16
ag44
ag10
ag11
aa(lp129
g2
ag3
ag4
ag15
ag6
ag7
ag8
ag44
ag10
ag11
aa(lp130
g2
ag14
ag21
ag5
ag6
ag7
ag16
ag44
ag35
ag11
aa(lp131
g25
ag3
ag4
ag28
ag6
ag31
ag8
ag23
ag10
ag11
aa(lp132
g2
ag3
ag27
ag5
ag6
ag31
ag16
ag23
ag10
ag11
aa(lp133
g2
ag26
ag4
ag5
ag6
ag7
ag8
ag9
ag10
ag11
aa(lp134
g25
ag3
ag27
ag28
ag6
ag7
ag16
ag9
ag10
ag11
aa(lp135
g13
ag20
ag4
ag5
ag6
ag7
ag16
ag23
ag10
ag11
aa(lp136
g25
ag26
ag27
ag28
ag6
ag7
ag38
ag44
ag10
ag11
aa(lp137
g13
ag20
ag27
ag5
ag6
ag31
ag38
ag9
ag10
ag11
aa(lp138
g2
ag3
ag4
ag28
ag6
ag7
ag16
ag44
ag10
ag11
aa(lp139
g2
ag3
ag4
ag5
ag6
ag7
ag16
ag44
ag10
ag11
aa(lp140
g13
ag26
ag27
ag28
ag6
ag31
ag16
ag9
ag10
ag11
aa(lp141
g2
ag20
ag4
ag15
ag6
ag31
ag8
ag9
ag10
ag11
aa(lp142
g25
ag26
ag27
ag28
ag6
ag7
ag38
ag17
ag10
ag11
aa(lp143
g2
ag3
ag21
ag5
ag6
ag7
ag16
ag9
ag10
ag11
aa(lp144
g25
ag20
ag27
ag28
ag6
ag7
ag38
ag9
ag10
ag11
aa(lp145
g13
ag26
ag27
ag28
ag6
ag7
ag38
ag17
ag10
ag11
aa(lp146
g2
ag26
ag27
ag5
ag52
ag31
ag16
ag9
ag10
ag11
aa(lp147
g13
ag20
ag27
ag28
ag6
ag7
ag38
ag9
ag10
ag11
aa(lp148
g13
ag26
ag4
ag15
ag6
ag7
ag8
ag9
ag10
ag11
aa(lp149
g2
ag3
ag4
ag28
ag6
ag7
ag16
ag9
ag10
ag11
aa(lp150
g13
ag14
ag21
ag28
ag6
ag7
ag8
ag17
ag35
ag11
aa(lp151
g13
ag3
ag4
ag15
ag6
ag7
ag8
ag9
ag10
ag11
aa(lp152
g2
ag20
ag27
ag28
ag6
ag7
ag16
ag9
ag10
ag11
aa(lp153
g25
ag3
ag4
ag28
ag52
ag7
ag16
ag23
ag10
ag11
aa(lp154
g13
ag3
ag34
ag5
ag6
ag31
ag16
ag23
ag10
ag11
aa(lp155
g2
ag20
ag27
ag28
ag6
ag7
ag38
ag23
ag35
ag11
aa(lp156
g13
ag26
ag27
ag28
ag6
ag7
ag38
ag9
ag10
ag11
aa(lp157
g13
ag3
ag4
ag28
ag6
ag7
ag16
ag23
ag35
ag11
aa(lp158
g13
ag14
ag4
ag28
ag6
ag31
ag8
ag23
ag35
ag11
aa(lp159
g2
ag20
ag27
ag28
ag6
ag7
ag38
ag9
ag10
ag11
aa(lp160
g13
ag20
ag27
ag5
ag6
ag7
ag16
ag44
ag10
ag11
aa(lp161
g2
ag26
ag27
ag28
ag52
ag31
ag38
ag9
ag10
ag11
aa(lp162
g13
ag14
ag21
ag15
ag6
ag7
ag16
ag44
ag10
ag11
aa(lp163
g2
ag20
ag27
ag28
ag6
ag7
ag16
ag44
ag35
ag11
aa(lp164
g2
ag26
ag27
ag28
ag6
ag7
ag38
ag9
ag10
ag11
aa(lp165
g2
ag20
ag4
ag5
ag6
ag31
ag8
ag17
ag10
ag11
aa(lp166
g2
ag26
ag27
ag28
ag6
ag7
ag16
ag9
ag10
ag11
aa(lp167
g25
ag20
ag4
ag28
ag6
ag7
ag8
ag23
ag10
ag11
aa(lp168
g2
ag26
ag27
ag28
ag52
ag7
ag16
ag44
ag10
ag11
aa(lp169
g25
ag26
ag27
ag28
ag6
ag7
ag38
ag17
ag10
ag11
aa(lp170
g2
ag26
ag27
ag28
ag6
ag7
ag38
ag9
ag10
ag11
aa(lp171
g2
ag26
ag27
ag28
ag52
ag31
ag16
ag9
ag10
ag11
aa(lp172
g13
ag26
ag27
ag28
ag6
ag31
ag38
ag9
ag10
ag11
aa(lp173
g2
ag26
ag27
ag28
ag52
ag7
ag16
ag9
ag10
ag11
aa(lp174
g2
ag3
ag27
ag28
ag6
ag7
ag16
ag17
ag10
ag11
aa(lp175
g2
ag26
ag27
ag5
ag6
ag7
ag38
ag17
ag10
ag11
aa(lp176
g13
ag26
ag27
ag5
ag6
ag7
ag8
ag9
ag10
ag11
aa(lp177
g13
ag26
ag27
ag28
ag6
ag7
ag38
ag17
ag10
ag11
aa(lp178
g2
ag26
ag27
ag28
ag6
ag31
ag38
ag9
ag10
ag11
aa(lp179
g13
ag26
ag27
ag15
ag6
ag7
ag38
ag17
ag10
ag11
aa(lp180
g13
ag26
ag27
ag5
ag6
ag7
ag8
ag17
ag10
ag11
aa(lp181
g25
ag14
ag4
ag5
ag6
ag7
ag16
ag23
ag10
ag11
aa(lp182
g13
ag20
ag27
ag28
ag6
ag7
ag38
ag17
ag35
ag11
aa(lp183
g25
ag26
ag27
ag28
ag6
ag7
ag8
ag17
ag10
ag11
aa(lp184
g13
ag14
ag21
ag5
ag6
ag7
ag8
ag23
ag10
ag11
aa(lp185
g13
ag14
ag34
ag15
ag6
ag7
ag8
ag9
ag35
ag11
aa(lp186
g2
ag26
ag27
ag28
ag6
ag31
ag8
ag17
ag10
ag11
aa(lp187
g2
ag3
ag27
ag5
ag6
ag7
ag16
ag23
ag10
ag11
aa(lp188
g13
ag14
ag27
ag15
ag6
ag7
ag38
ag23
ag35
ag11
aa(lp189
g25
ag3
ag21
ag28
ag6
ag7
ag16
ag44
ag10
ag11
aa(lp190
g25
ag14
ag34
ag5
ag6
ag7
ag8
ag44
ag35
ag11
aa(lp191
g2
ag26
ag27
ag28
ag6
ag31
ag38
ag17
ag10
ag11
aa(lp192
g13
ag14
ag4
ag28
ag6
ag7
ag8
ag9
ag10
ag11
aa(lp193
g13
ag20
ag4
ag28
ag6
ag31
ag16
ag9
ag10
ag11
aa(lp194
g2
ag26
ag27
ag5
ag6
ag7
ag8
ag9
ag10
ag11
aa(lp195
g13
ag20
ag27
ag28
ag6
ag7
ag8
ag17
ag10
ag11
aa(lp196
g13
ag20
ag27
ag15
ag6
ag7
ag38
ag17
ag10
ag11
aa(lp197
g2
ag26
ag27
ag28
ag6
ag7
ag38
ag17
ag10
ag11
aa(lp198
g25
ag26
ag27
ag28
ag6
ag7
ag8
ag17
ag10
ag11
aa(lp199
g25
ag20
ag27
ag28
ag6
ag31
ag8
ag17
ag10
ag11
aa(lp200
g13
ag26
ag27
ag5
ag6
ag7
ag38
ag17
ag10
ag11
aa(lp201
g13
ag3
ag21
ag15
ag6
ag31
ag16
ag44
ag10
ag11
aa(lp202
g25
ag3
ag27
ag28
ag6
ag7
ag8
ag17
ag10
ag11
aa(lp203
g25
ag20
ag4
ag28
ag6
ag7
ag16
ag17
ag10
ag11
aa(lp204
g2
ag20
ag21
ag28
ag6
ag7
ag16
ag23
ag10
ag11
aa(lp205
g2
ag3
ag27
ag28
ag6
ag31
ag16
ag17
ag10
ag11
aa(lp206
g2
ag26
ag27
ag28
ag52
ag7
ag38
ag9
ag10
ag11
aa(lp207
g2
ag3
ag27
ag5
ag6
ag31
ag38
ag17
ag10
ag11
aa(lp208
g13
ag3
ag27
ag28
ag6
ag31
ag8
ag17
ag10
ag11
aa(lp209
g13
ag3
ag34
ag15
ag6
ag31
ag8
ag17
ag10
ag11
aa(lp210
g2
ag26
ag27
ag28
ag6
ag31
ag38
ag17
ag10
ag11
aa(lp211
g2
ag3
ag27
ag28
ag6
ag7
ag8
ag23
ag10
ag11
aa(lp212
g13
ag14
ag4
ag15
ag6
ag7
ag16
ag9
ag10
ag11
aa(lp213
g13
ag3
ag34
ag5
ag6
ag31
ag43
ag9
ag10
ag11
aa(lp214
g2
ag20
ag27
ag15
ag6
ag31
ag8
ag23
ag10
ag11
aa(lp215
g2
ag3
ag4
ag28
ag6
ag7
ag16
ag17
ag10
ag11
aa(lp216
g25
ag3
ag27
ag28
ag6
ag7
ag16
ag23
ag10
ag11
aa(lp217
g13
ag3
ag4
ag5
ag6
ag7
ag16
ag44
ag35
ag11
aa(lp218
g25
ag20
ag4
ag28
ag6
ag7
ag16
ag23
ag10
ag11
aa(lp219
g2
ag20
ag21
ag5
ag6
ag7
ag16
ag23
ag10
ag11
aa(lp220
g2
ag14
ag21
ag5
ag6
ag7
ag43
ag44
ag10
ag11
aa(lp221
g2
ag20
ag27
ag5
ag6
ag31
ag16
ag23
ag10
ag11
aa(lp222
g13
ag14
ag34
ag15
ag6
ag7
ag43
ag44
ag35
ag11
aa(lp223
g2
ag20
ag4
ag28
ag6
ag7
ag16
ag9
ag10
ag11
aa(lp224
g25
ag20
ag27
ag28
ag6
ag31
ag16
ag44
ag10
ag11
aa(lp225
g13
ag14
ag21
ag15
ag6
ag7
ag16
ag9
ag35
ag11
aa(lp226
g2
ag3
ag21
ag5
ag6
ag31
ag16
ag44
ag10
ag11
aa(lp227
g13
ag20
ag27
ag15
ag6
ag7
ag8
ag17
ag10
ag11
aa(lp228
g2
ag14
ag34
ag15
ag6
ag7
ag8
ag23
ag10
ag11
aa(lp229
g2
ag3
ag27
ag28
ag6
ag7
ag16
ag9
ag10
ag11
aa(lp230
g13
ag14
ag27
ag15
ag52
ag7
ag8
ag23
ag35
ag11
aa(lp231
g25
ag3
ag27
ag28
ag6
ag7
ag16
ag9
ag10
ag11
aa(lp232
g13
ag3
ag27
ag28
ag6
ag31
ag8
ag17
ag10
ag11
aa(lp233
g2
ag3
ag4
ag28
ag6
ag7
ag16
ag9
ag10
ag11
aa(lp234
g13
ag20
ag27
ag28
ag6
ag7
ag38
ag23
ag10
ag11
aa(lp235
g25
ag3
ag4
ag28
ag6
ag7
ag16
ag44
ag10
ag11
aa(lp236
g2
ag3
ag27
ag28
ag6
ag7
ag16
ag44
ag10
ag11
aa(lp237
g2
ag20
ag27
ag28
ag6
ag31
ag8
ag9
ag10
ag11
aa(lp238
g2
ag26
ag27
ag28
ag6
ag7
ag38
ag17
ag10
ag11
aa(lp239
g2
ag3
ag4
ag5
ag6
ag31
ag16
ag23
ag10
ag11
aa(lp240
g13
ag20
ag4
ag28
ag52
ag7
ag16
ag17
ag10
ag11
aa(lp241
g13
ag14
ag21
ag28
ag6
ag31
ag16
ag9
ag10
ag11
aa(lp242
g2
ag20
ag27
ag5
ag6
ag7
ag16
ag23
ag10
ag11
aa(lp243
g13
ag14
ag4
ag15
ag6
ag7
ag16
ag23
ag10
ag11
aa(lp244
g13
ag14
ag4
ag15
ag6
ag7
ag16
ag44
ag10
ag11
aa(lp245
g2
ag20
ag27
ag28
ag6
ag31
ag8
ag23
ag10
ag11
aa(lp246
g13
ag20
ag21
ag28
ag6
ag7
ag16
ag9
ag10
ag11
aa(lp247
g2
ag20
ag21
ag15
ag6
ag31
ag8
ag9
ag35
ag11
aa(lp248
g2
ag20
ag21
ag5
ag6
ag7
ag8
ag23
ag35
ag11
aa(lp249
g2
ag20
ag4
ag28
ag6
ag31
ag8
ag9
ag10
ag11
aa(lp250
g25
ag3
ag4
ag28
ag6
ag7
ag16
ag9
ag10
ag11
aa(lp251
g2
ag20
ag27
ag28
ag6
ag7
ag16
ag9
ag10
ag11
aa(lp252
g13
ag14
ag21
ag28
ag6
ag7
ag8
ag23
ag35
ag11
aa(lp253
g25
ag14
ag21
ag28
ag6
ag7
ag8
ag17
ag10
ag11
aa(lp254
g13
ag26
ag27
ag5
ag6
ag7
ag38
ag17
ag10
ag11
aa(lp255
g2
ag26
ag27
ag5
ag6
ag31
ag38
ag9
ag10
ag11
aa(lp256
g13
ag20
ag4
ag28
ag6
ag7
ag38
ag17
ag10
ag11
aa(lp257
g13
ag14
ag4
ag28
ag6
ag7
ag8
ag9
ag35
ag11
aa(lp258
g13
ag14
ag27
ag15
ag6
ag7
ag16
ag9
ag10
ag11
aa(lp259
g2
ag20
ag27
ag28
ag6
ag7
ag16
ag23
ag10
ag11
aa(lp260
g13
ag14
ag4
ag5
ag6
ag7
ag16
ag17
ag35
ag11
aa(lp261
g2
ag3
ag27
ag28
ag6
ag7
ag38
ag9
ag10
ag11
aa(lp262
g25
ag20
ag27
ag28
ag6
ag31
ag16
ag44
ag10
ag11
aa(lp263
g25
ag3
ag4
ag28
ag6
ag7
ag8
ag17
ag10
ag11
aa(lp264
g13
ag14
ag34
ag15
ag6
ag31
ag16
ag44
ag35
ag11
aa(lp265
g2
ag3
ag4
ag28
ag6
ag31
ag16
ag17
ag10
ag11
aa(lp266
g13
ag3
ag4
ag15
ag6
ag31
ag16
ag23
ag10
ag11
aa(lp267
g2
ag26
ag27
ag28
ag6
ag7
ag16
ag9
ag10
ag11
aa(lp268
g13
ag20
ag4
ag15
ag6
ag7
ag16
ag9
ag10
ag11
aa(lp269
g25
ag20
ag4
ag28
ag6
ag7
ag8
ag9
ag10
ag11
aa(lp270
g25
ag20
ag27
ag28
ag6
ag7
ag8
ag9
ag10
ag11
aa(lp271
g13
ag20
ag4
ag5
ag6
ag7
ag8
ag23
ag10
ag11
aa(lp272
g13
ag14
ag27
ag5
ag6
ag7
ag16
ag9
ag10
ag11
aa(lp273
g25
ag26
ag27
ag28
ag6
ag7
ag38
ag9
ag10
ag11
aa(lp274
g2
ag20
ag27
ag5
ag6
ag7
ag38
ag17
ag10
ag11
aa(lp275
g2
ag26
ag27
ag28
ag52
ag7
ag38
ag17
ag10
ag11
aa(lp276
g2
ag26
ag27
ag28
ag6
ag31
ag38
ag9
ag10
ag11
aa(lp277
g25
ag26
ag27
ag28
ag6
ag7
ag38
ag17
ag10
ag11
aa(lp278
g2
ag26
ag27
ag28
ag6
ag7
ag38
ag23
ag10
ag11
aa(lp279
g13
ag20
ag21
ag15
ag6
ag31
ag8
ag23
ag35
ag11
aa(lp280
g2
ag26
ag27
ag5
ag52
ag7
ag38
ag23
ag10
ag11
aa(lp281
g2
ag26
ag27
ag15
ag6
ag7
ag16
ag9
ag10
ag11
aa(lp282
g2
ag20
ag4
ag28
ag6
ag7
ag16
ag23
ag10
ag11
aa(lp283
g2
ag26
ag27
ag28
ag6
ag31
ag38
ag17
ag10
ag11
aa(lp284
g13
ag14
ag4
ag5
ag6
ag7
ag16
ag9
ag35
ag11
aa(lp285
g13
ag26
ag27
ag28
ag6
ag7
ag16
ag9
ag10
ag11
aa(lp286
g13
ag20
ag27
ag28
ag52
ag7
ag8
ag17
ag10
ag11
aa(lp287
g13
ag14
ag21
ag15
ag6
ag7
ag16
ag17
ag10
ag11
aa(lp288
g13
ag3
ag21
ag28
ag6
ag31
ag16
ag23
ag10
ag11
aa(lp289
g13
ag20
ag4
ag28
ag52
ag7
ag16
ag17
ag10
ag11
aa(lp290
g13
ag14
ag21
ag15
ag6
ag31
ag16
ag23
ag10
ag11
aa(lp291
g13
ag14
ag4
ag15
ag6
ag31
ag16
ag23
ag10
ag11
aa(lp292
g2
ag20
ag4
ag5
ag6
ag31
ag8
ag17
ag10
ag11
aa(lp293
g25
ag20
ag4
ag28
ag6
ag7
ag8
ag23
ag10
ag11
aa(lp294
g2
ag3
ag27
ag15
ag6
ag7
ag16
ag23
ag10
ag11
aa(lp295
g25
ag26
ag27
ag28
ag6
ag7
ag38
ag9
ag10
ag11
aa(lp296
g13
ag20
ag27
ag15
ag6
ag7
ag8
ag17
ag10
ag11
aa(lp297
g13
ag20
ag27
ag15
ag6
ag31
ag16
ag23
ag10
ag11
aa(lp298
g13
ag20
ag4
ag15
ag6
ag7
ag16
ag44
ag10
ag11
aa(lp299
g13
ag14
ag34
ag15
ag6
ag31
ag16
ag44
ag10
ag11
aa(lp300
g2
ag26
ag27
ag28
ag6
ag7
ag38
ag17
ag10
ag11
aa(lp301
g2
ag20
ag27
ag28
ag6
ag7
ag16
ag17
ag10
ag11
aa(lp302
g2
ag20
ag27
ag28
ag6
ag7
ag8
ag44
ag10
ag11
aa(lp303
g13
ag3
ag27
ag15
ag52
ag7
ag8
ag9
ag10
ag11
aa(lp304
g25
ag20
ag27
ag28
ag6
ag31
ag8
ag9
ag10
ag11
aa(lp305
g2
ag20
ag27
ag28
ag52
ag7
ag8
ag9
ag10
ag11
aa(lp306
g13
ag3
ag34
ag15
ag52
ag7
ag8
ag17
ag10
ag11
aa(lp307
g2
ag3
ag4
ag28
ag6
ag7
ag8
ag17
ag10
ag11
aa(lp308
g13
ag20
ag27
ag15
ag6
ag7
ag16
ag17
ag10
ag11
aa(lp309
g13
ag26
ag27
ag5
ag6
ag7
ag8
ag17
ag10
ag11
aa(lp310
g13
ag3
ag4
ag15
ag6
ag31
ag16
ag9
ag10
ag11
aa(lp311
g25
ag3
ag27
ag28
ag6
ag7
ag16
ag44
ag10
ag11
aa(lp312
g25
ag26
ag27
ag28
ag6
ag7
ag38
ag17
ag10
ag11
aa(lp313
g13
ag20
ag4
ag15
ag6
ag7
ag16
ag17
ag10
ag11
aa(lp314
g2
ag3
ag27
ag28
ag6
ag31
ag43
ag17
ag35
ag11
aa(lp315
g13
ag26
ag27
ag15
ag52
ag7
ag8
ag17
ag10
ag11
aa(lp316
g25
ag26
ag27
ag28
ag6
ag31
ag38
ag17
ag10
ag11
aa(lp317
g25
ag3
ag27
ag5
ag6
ag7
ag16
ag9
ag10
ag11
aa(lp318
g25
ag3
ag34
ag28
ag6
ag7
ag16
ag23
ag10
ag11
aa(lp319
g2
ag14
ag4
ag28
ag6
ag7
ag8
ag23
ag35
ag11
aa(lp320
g2
ag26
ag27
ag28
ag6
ag7
ag8
ag23
ag10
ag11
aa(lp321
g13
ag26
ag27
ag5
ag6
ag7
ag38
ag17
ag10
ag11
aa(lp322
g13
ag14
ag21
ag28
ag6
ag7
ag8
ag17
ag10
ag11
aa(lp323
g13
ag26
ag27
ag5
ag6
ag7
ag16
ag17
ag10
ag11
aa(lp324
g2
ag26
ag27
ag28
ag6
ag7
ag38
ag9
ag10
ag11
aa(lp325
g13
ag20
ag27
ag15
ag6
ag7
ag38
ag17
ag10
ag11
aa(lp326
g13
ag20
ag27
ag15
ag6
ag7
ag38
ag17
ag10
ag11
aa(lp327
g13
ag26
ag27
ag28
ag6
ag7
ag38
ag17
ag10
ag11
aa(lp328
g2
ag26
ag27
ag5
ag52
ag7
ag38
ag17
ag10
ag11
aa(lp329
g2
ag26
ag27
ag28
ag6
ag7
ag38
ag17
ag10
ag11
aa(lp330
g2
ag14
ag21
ag15
ag6
ag7
ag8
ag17
ag10
ag11
aa(lp331
g2
ag26
ag21
ag28
ag6
ag31
ag8
ag23
ag10
ag11
aa(lp332
g2
ag20
ag4
ag28
ag6
ag7
ag16
ag17
ag10
ag11
aa(lp333
g2
ag3
ag27
ag28
ag6
ag7
ag16
ag17
ag10
ag11
aa(lp334
g25
ag26
ag27
ag28
ag6
ag31
ag8
ag17
ag10
ag11
aa(lp335
g25
ag26
ag27
ag28
ag6
ag31
ag16
ag9
ag10
ag11
aa(lp336
g13
ag14
ag21
ag28
ag6
ag7
ag8
ag17
ag10
ag11
aa(lp337
g13
ag20
ag27
ag15
ag6
ag7
ag38
ag17
ag10
ag11
aa(lp338
g25
ag20
ag4
ag28
ag6
ag7
ag8
ag23
ag10
ag11
aa(lp339
g25
ag20
ag27
ag28
ag6
ag7
ag8
ag9
ag10
ag11
aa(lp340
g13
ag20
ag27
ag5
ag6
ag7
ag8
ag9
ag10
ag11
aa(lp341
g13
ag20
ag4
ag28
ag6
ag31
ag8
ag17
ag10
ag11
aa(lp342
g2
ag14
ag27
ag28
ag6
ag31
ag16
ag9
ag35
ag11
aa(lp343
g13
ag26
ag27
ag28
ag6
ag7
ag16
ag17
ag10
ag11
aa(lp344
g13
ag3
ag21
ag28
ag52
ag31
ag16
ag9
ag10
ag11
aa(lp345
g13
ag3
ag4
ag15
ag52
ag31
ag8
ag17
ag10
ag11
aa(lp346
g2
ag14
ag27
ag28
ag6
ag31
ag8
ag9
ag10
ag11
aa(lp347
g2
ag20
ag4
ag15
ag6
ag31
ag16
ag17
ag10
ag11
aa(lp348
g25
ag20
ag27
ag28
ag6
ag7
ag16
ag9
ag10
ag11
aa(lp349
g2
ag3
ag4
ag5
ag52
ag7
ag8
ag17
ag10
ag11
aa(lp350
g13
ag26
ag27
ag5
ag52
ag7
ag16
ag17
ag10
ag11
aa(lp351
g13
ag14
ag34
ag28
ag6
ag31
ag16
ag17
ag10
ag11
aa(lp352
g13
ag20
ag27
ag28
ag52
ag7
ag38
ag17
ag10
ag11
aa(lp353
g25
ag14
ag4
ag28
ag6
ag31
ag16
ag17
ag35
ag11
aa(lp354
g2
ag26
ag27
ag28
ag52
ag7
ag38
ag9
ag10
ag11
aa(lp355
g2
ag26
ag27
ag28
ag52
ag7
ag8
ag9
ag10
ag11
aa(lp356
g13
ag14
ag4
ag5
ag6
ag7
ag16
ag9
ag35
ag11
aa(lp357
g2
ag26
ag27
ag28
ag52
ag7
ag16
ag17
ag10
ag11
aa(lp358
g13
ag26
ag27
ag5
ag6
ag7
ag16
ag17
ag10
ag11
aa(lp359
g13
ag20
ag27
ag28
ag52
ag7
ag16
ag17
ag10
ag11
aa(lp360
g2
ag20
ag27
ag28
ag52
ag7
ag8
ag17
ag10
ag11
aa(lp361
g2
ag14
ag21
ag28
ag6
ag31
ag43
ag17
ag10
ag11
aa(lp362
g25
ag14
ag21
ag28
ag6
ag31
ag16
ag17
ag10
ag11
aa(lp363
g13
ag26
ag27
ag28
ag52
ag7
ag38
ag17
ag10
ag11
aa(lp364
g2
ag26
ag27
ag28
ag52
ag7
ag16
ag17
ag10
ag11
aa(lp365
g2
ag3
ag21
ag15
ag6
ag7
ag8
ag23
ag35
ag11
aa(lp366
g2
ag26
ag4
ag28
ag52
ag31
ag16
ag9
ag10
ag11
aa(lp367
g2
ag26
ag27
ag5
ag6
ag31
ag8
ag17
ag10
ag11
aa(lp368
g2
ag26
ag27
ag28
ag6
ag31
ag8
ag17
ag10
ag11
aa(lp369
g2
ag20
ag27
ag5
ag6
ag7
ag8
ag44
ag10
ag11
aa(lp370
g2
ag3
ag4
ag5
ag6
ag31
ag16
ag23
ag10
ag11
aa(lp371
g13
ag20
ag4
ag15
ag6
ag7
ag43
ag9
ag10
ag11
aa(lp372
g25
ag26
ag27
ag28
ag52
ag7
ag8
ag17
ag10
ag11
aa(lp373
g13
ag20
ag27
ag5
ag52
ag7
ag16
ag17
ag10
ag11
aa(lp374
g25
ag26
ag27
ag28
ag6
ag7
ag16
ag9
ag10
ag11
aa(lp375
g2
ag26
ag27
ag28
ag52
ag7
ag8
ag17
ag10
ag11
aa(lp376
g2
ag26
ag27
ag28
ag52
ag31
ag16
ag17
ag10
ag11
aa(lp377
g2
ag14
ag21
ag5
ag6
ag7
ag16
ag23
ag35
ag11
aa(lp378
g2
ag3
ag21
ag5
ag6
ag7
ag16
ag9
ag10
ag11
aa(lp379
g2
ag20
ag4
ag28
ag6
ag7
ag16
ag44
ag10
ag11
aa(lp380
g25
ag3
ag21
ag28
ag6
ag7
ag16
ag44
ag10
ag11
aa(lp381
g13
ag14
ag21
ag15
ag6
ag7
ag16
ag44
ag35
ag11
aa(lp382
g2
ag3
ag21
ag28
ag6
ag7
ag16
ag44
ag35
ag11
aa(lp383
g2
ag3
ag21
ag28
ag6
ag7
ag8
ag44
ag10
ag11
aa(lp384
g2
ag3
ag4
ag15
ag6
ag7
ag16
ag23
ag10
ag11
aa(lp385
g2
ag3
ag21
ag28
ag6
ag31
ag16
ag23
ag35
ag11
aa(lp386
g25
ag3
ag27
ag28
ag6
ag7
ag38
ag17
ag10
ag11
aa(lp387
g25
ag3
ag27
ag5
ag6
ag7
ag16
ag17
ag10
ag11
aa(lp388
g13
ag3
ag4
ag28
ag6
ag7
ag38
ag23
ag10
ag11
aa(lp389
g2
ag3
ag4
ag28
ag6
ag7
ag8
ag17
ag10
ag11
aa(lp390
g25
ag20
ag27
ag28
ag6
ag7
ag16
ag44
ag10
ag11
aa(lp391
g13
ag20
ag4
ag5
ag6
ag7
ag8
ag17
ag10
ag11
aa(lp392
g13
ag14
ag4
ag28
ag6
ag7
ag16
ag17
ag10
ag11
aa(lp393
g2
ag3
ag4
ag28
ag6
ag31
ag8
ag17
ag10
ag11
aa(lp394
g2
ag20
ag21
ag28
ag6
ag7
ag8
ag23
ag10
ag11
aa(lp395
g25
ag3
ag4
ag5
ag6
ag7
ag16
ag17
ag10
ag11
aa(lp396
g13
ag20
ag4
ag5
ag6
ag31
ag8
ag17
ag10
ag11
aa(lp397
g25
ag26
ag27
ag28
ag6
ag7
ag8
ag9
ag10
ag11
aa(lp398
g2
ag3
ag4
ag15
ag6
ag31
ag16
ag9
ag10
ag11
aa(lp399
g25
ag20
ag4
ag15
ag6
ag7
ag16
ag9
ag10
ag11
aa(lp400
g13
ag20
ag4
ag15
ag6
ag7
ag38
ag17
ag10
ag11
aa(lp401
g13
ag3
ag4
ag5
ag6
ag7
ag8
ag9
ag10
ag11
aa(lp402
g25
ag3
ag4
ag28
ag6
ag7
ag16
ag23
ag10
ag11
aa(lp403
g13
ag20
ag27
ag5
ag6
ag7
ag38
ag17
ag10
ag11
aa(lp404
g13
ag14
ag4
ag28
ag6
ag7
ag16
ag9
ag35
ag11
aa(lp405
g25
ag20
ag4
ag28
ag6
ag7
ag8
ag23
ag10
ag11
aa(lp406
g13
ag20
ag4
ag5
ag6
ag7
ag8
ag23
ag35
ag11
aa(lp407
g2
ag3
ag27
ag15
ag6
ag7
ag8
ag9
ag10
ag11
aa(lp408
g25
ag3
ag4
ag28
ag6
ag7
ag8
ag9
ag10
ag11
aa(lp409
g13
ag14
ag21
ag15
ag6
ag7
ag16
ag9
ag35
ag11
aa(lp410
g13
ag20
ag4
ag15
ag6
ag7
ag8
ag23
ag10
ag11
aa(lp411
g13
ag3
ag27
ag15
ag52
ag7
ag8
ag23
ag10
ag11
aa(lp412
g13
ag3
ag4
ag28
ag52
ag31
ag16
ag9
ag10
ag11
aa(lp413
g2
ag3
ag4
ag28
ag6
ag31
ag8
ag44
ag10
ag11
aa(lp414
g13
ag3
ag27
ag15
ag6
ag7
ag16
ag9
ag10
ag11
aa(lp415
g13
ag26
ag27
ag28
ag6
ag31
ag38
ag17
ag10
ag11
aa(lp416
g13
ag26
ag27
ag5
ag6
ag31
ag38
ag17
ag35
ag11
aa(lp417
g25
ag26
ag27
ag28
ag52
ag7
ag16
ag17
ag10
ag11
aa(lp418
g2
ag3
ag27
ag28
ag6
ag31
ag16
ag17
ag10
ag11
aa(lp419
g25
ag3
ag4
ag28
ag6
ag7
ag16
ag17
ag10
ag11
aa(lp420
g2
ag26
ag27
ag28
ag6
ag31
ag16
ag9
ag10
ag11
aa(lp421
g2
ag26
ag27
ag15
ag6
ag7
ag16
ag17
ag10
ag11
aa(lp422
g13
ag14
ag27
ag15
ag6
ag7
ag38
ag17
ag10
ag11
aa(lp423
g2
ag20
ag4
ag28
ag6
ag7
ag16
ag17
ag10
ag11
aa(lp424
g2
ag26
ag27
ag28
ag6
ag31
ag8
ag17
ag10
ag11
aa(lp425
g13
ag26
ag27
ag28
ag52
ag7
ag38
ag17
ag10
ag11
aa(lp426
g13
ag14
ag4
ag15
ag6
ag7
ag8
ag17
ag10
ag11
aa(lp427
g13
ag14
ag34
ag15
ag6
ag31
ag8
ag23
ag35
ag11
aa(lp428
g25
ag3
ag21
ag28
ag6
ag7
ag8
ag23
ag10
ag11
aa(lp429
g13
ag14
ag21
ag5
ag6
ag7
ag8
ag44
ag35
ag11
aa(lp430
g13
ag14
ag21
ag28
ag6
ag7
ag16
ag44
ag35
ag11
aa(lp431
g2
ag20
ag27
ag15
ag6
ag7
ag38
ag17
ag10
ag11
aa(lp432
g13
ag3
ag21
ag15
ag6
ag7
ag8
ag23
ag10
ag11
aa(lp433
g13
ag14
ag21
ag28
ag6
ag7
ag16
ag17
ag35
ag11
aa(lp434
g2
ag20
ag27
ag5
ag6
ag31
ag38
ag9
ag10
ag11
aa(lp435
g25
ag20
ag4
ag28
ag6
ag7
ag16
ag9
ag10
ag11
aa(lp436
g2
ag3
ag21
ag5
ag6
ag7
ag8
ag17
ag10
ag11
aa(lp437
g13
ag20
ag4
ag28
ag6
ag7
ag8
ag17
ag10
ag11
aa(lp438
g2
ag20
ag4
ag28
ag6
ag31
ag8
ag23
ag10
ag11
aa(lp439
g25
ag20
ag4
ag28
ag6
ag7
ag8
ag17
ag10
ag11
aa(lp440
g13
ag3
ag4
ag5
ag6
ag31
ag8
ag17
ag10
ag11
aa(lp441
g13
ag3
ag27
ag28
ag6
ag7
ag16
ag17
ag10
ag11
aa(lp442
g13
ag14
ag34
ag28
ag6
ag7
ag16
ag17
ag10
ag11
aa(lp443
g2
ag3
ag21
ag28
ag6
ag7
ag16
ag44
ag10
ag11
aa(lp444
g25
ag3
ag4
ag5
ag6
ag7
ag16
ag17
ag10
ag11
aa(lp445
g2
ag20
ag4
ag15
ag6
ag7
ag16
ag17
ag10
aS'long_term_conception'
p446
aa(lp447
g13
ag26
ag4
ag15
ag6
ag7
ag38
ag17
ag10
ag446
aa(lp448
g2
ag26
ag27
ag5
ag6
ag7
ag38
ag17
ag10
ag446
aa(lp449
g2
ag26
ag27
ag28
ag6
ag31
ag38
ag17
ag10
ag446
aa(lp450
g13
ag20
ag4
ag15
ag6
ag31
ag38
ag9
ag10
ag446
aa(lp451
g13
ag20
ag27
ag5
ag6
ag7
ag38
ag9
ag10
ag446
aa(lp452
g13
ag3
ag27
ag5
ag6
ag7
ag16
ag9
ag10
ag446
aa(lp453
g2
ag26
ag27
ag28
ag6
ag7
ag38
ag17
ag10
ag446
aa(lp454
g2
ag3
ag27
ag15
ag6
ag7
ag16
ag17
ag10
ag446
aa(lp455
g13
ag3
ag4
ag15
ag6
ag7
ag16
ag17
ag10
ag446
aa(lp456
g2
ag26
ag27
ag28
ag52
ag31
ag38
ag17
ag10
ag446
aa(lp457
g13
ag26
ag27
ag5
ag6
ag7
ag38
ag17
ag10
ag446
aa(lp458
g2
ag14
ag34
ag28
ag6
ag7
ag16
ag17
ag10
ag446
aa(lp459
g2
ag3
ag27
ag5
ag6
ag7
ag16
ag17
ag10
ag446
aa(lp460
g13
ag26
ag27
ag5
ag52
ag31
ag38
ag23
ag10
ag446
aa(lp461
g25
ag26
ag27
ag28
ag6
ag7
ag38
ag23
ag10
ag446
aa(lp462
g25
ag20
ag27
ag28
ag6
ag7
ag16
ag17
ag10
ag446
aa(lp463
g2
ag20
ag27
ag5
ag6
ag7
ag8
ag9
ag10
ag446
aa(lp464
g13
ag26
ag27
ag28
ag6
ag31
ag16
ag9
ag10
ag446
aa(lp465
g25
ag20
ag27
ag28
ag6
ag7
ag16
ag23
ag10
ag446
aa(lp466
g13
ag26
ag27
ag15
ag6
ag7
ag38
ag17
ag10
ag446
aa(lp467
g2
ag3
ag34
ag28
ag6
ag31
ag16
ag9
ag10
ag446
aa(lp468
g2
ag3
ag21
ag5
ag6
ag7
ag8
ag9
ag10
ag446
aa(lp469
g2
ag3
ag4
ag28
ag6
ag7
ag16
ag9
ag10
ag446
aa(lp470
g2
ag3
ag27
ag28
ag6
ag31
ag16
ag17
ag10
ag446
aa(lp471
g2
ag26
ag27
ag5
ag6
ag7
ag8
ag17
ag10
ag446
aa(lp472
g13
ag26
ag4
ag15
ag6
ag31
ag8
ag17
ag10
ag446
aa(lp473
g13
ag26
ag27
ag28
ag6
ag31
ag38
ag17
ag10
ag446
aa(lp474
g2
ag26
ag27
ag28
ag52
ag31
ag38
ag17
ag10
ag446
aa(lp475
g13
ag26
ag27
ag15
ag6
ag7
ag38
ag17
ag10
ag446
aa(lp476
g2
ag3
ag21
ag15
ag6
ag31
ag16
ag17
ag10
ag446
aa(lp477
g13
ag26
ag27
ag5
ag6
ag7
ag38
ag17
ag10
ag446
aa(lp478
g2
ag26
ag27
ag15
ag52
ag31
ag38
ag17
ag10
ag446
aa(lp479
g13
ag26
ag27
ag5
ag52
ag7
ag38
ag9
ag10
ag446
aa(lp480
g25
ag20
ag27
ag28
ag6
ag7
ag8
ag17
ag10
ag446
aa(lp481
g25
ag26
ag27
ag28
ag6
ag7
ag16
ag17
ag10
ag446
aa(lp482
g2
ag3
ag27
ag28
ag6
ag7
ag38
ag9
ag10
ag446
aa(lp483
g2
ag20
ag4
ag28
ag6
ag7
ag16
ag44
ag10
ag446
aa(lp484
g2
ag26
ag27
ag28
ag6
ag7
ag38
ag17
ag10
ag446
aa(lp485
g13
ag26
ag27
ag28
ag6
ag7
ag8
ag17
ag10
ag446
aa(lp486
g2
ag20
ag4
ag28
ag6
ag31
ag16
ag17
ag10
ag446
aa(lp487
g13
ag26
ag27
ag5
ag6
ag7
ag38
ag17
ag10
ag446
aa(lp488
g13
ag26
ag27
ag5
ag6
ag7
ag38
ag17
ag10
ag446
aa(lp489
g13
ag26
ag27
ag5
ag6
ag7
ag38
ag17
ag10
ag446
aa(lp490
g13
ag26
ag27
ag15
ag52
ag7
ag38
ag17
ag10
ag446
aa(lp491
g13
ag26
ag27
ag5
ag6
ag31
ag38
ag17
ag10
ag446
aa(lp492
g2
ag26
ag27
ag28
ag6
ag7
ag38
ag17
ag10
ag446
aa(lp493
g13
ag26
ag27
ag5
ag6
ag7
ag38
ag17
ag10
ag446
aa(lp494
g13
ag26
ag27
ag5
ag6
ag7
ag38
ag17
ag10
ag446
aa(lp495
g13
ag26
ag27
ag5
ag52
ag7
ag38
ag17
ag10
ag446
aa(lp496
g13
ag26
ag27
ag28
ag6
ag7
ag38
ag17
ag10
ag446
aa(lp497
g2
ag20
ag4
ag28
ag52
ag31
ag8
ag17
ag10
ag446
aa(lp498
g13
ag26
ag4
ag15
ag6
ag7
ag38
ag17
ag10
ag446
aa(lp499
g2
ag14
ag27
ag28
ag6
ag31
ag43
ag23
ag35
ag446
aa(lp500
g13
ag3
ag27
ag15
ag6
ag7
ag38
ag17
ag10
ag446
aa(lp501
g2
ag26
ag27
ag5
ag52
ag31
ag43
ag17
ag10
ag446
aa(lp502
g2
ag3
ag4
ag28
ag6
ag7
ag16
ag9
ag10
ag446
aa(lp503
g2
ag26
ag27
ag5
ag6
ag7
ag16
ag9
ag10
ag446
aa(lp504
g13
ag26
ag27
ag5
ag52
ag31
ag38
ag17
ag10
ag446
aa(lp505
g13
ag26
ag27
ag15
ag6
ag7
ag38
ag17
ag10
ag446
aa(lp506
g2
ag26
ag27
ag5
ag6
ag7
ag38
ag17
ag10
ag446
aa(lp507
g13
ag26
ag27
ag15
ag52
ag7
ag38
ag9
ag10
ag446
aa(lp508
g25
ag26
ag27
ag28
ag6
ag7
ag38
ag17
ag10
ag446
aa(lp509
g13
ag26
ag27
ag15
ag6
ag7
ag38
ag9
ag10
ag446
aa(lp510
g13
ag26
ag27
ag5
ag6
ag31
ag8
ag9
ag10
ag446
aa(lp511
g25
ag26
ag27
ag28
ag6
ag7
ag8
ag9
ag10
ag446
aa(lp512
g2
ag14
ag4
ag15
ag6
ag31
ag8
ag9
ag35
ag446
aa(lp513
g2
ag26
ag27
ag28
ag6
ag7
ag16
ag23
ag10
ag446
aa(lp514
g2
ag20
ag27
ag15
ag52
ag7
ag38
ag9
ag10
ag446
aa(lp515
g2
ag20
ag4
ag28
ag6
ag31
ag16
ag9
ag10
ag446
aa(lp516
g13
ag20
ag27
ag15
ag6
ag31
ag8
ag9
ag10
ag446
aa(lp517
g13
ag26
ag27
ag15
ag6
ag31
ag16
ag9
ag10
ag446
aa(lp518
g13
ag26
ag27
ag5
ag6
ag7
ag38
ag9
ag10
ag446
aa(lp519
g2
ag20
ag4
ag5
ag6
ag7
ag16
ag23
ag10
ag446
aa(lp520
g2
ag20
ag27
ag5
ag6
ag7
ag16
ag17
ag10
ag446
aa(lp521
g25
ag26
ag4
ag5
ag6
ag7
ag16
ag9
ag10
ag446
aa(lp522
g13
ag26
ag27
ag15
ag52
ag31
ag38
ag17
ag10
ag446
aa(lp523
g13
ag26
ag27
ag5
ag6
ag7
ag38
ag17
ag10
ag446
aa(lp524
g13
ag26
ag27
ag15
ag6
ag7
ag8
ag17
ag10
ag446
aa(lp525
g2
ag26
ag27
ag28
ag6
ag7
ag8
ag17
ag10
ag446
aa(lp526
g13
ag26
ag27
ag5
ag52
ag7
ag38
ag17
ag10
ag446
aa(lp527
g2
ag26
ag27
ag5
ag6
ag7
ag38
ag17
ag10
ag446
aa(lp528
g2
ag26
ag27
ag28
ag52
ag7
ag8
ag17
ag10
ag446
aa(lp529
g13
ag26
ag27
ag15
ag6
ag31
ag38
ag17
ag10
ag446
aa(lp530
g2
ag26
ag27
ag28
ag6
ag31
ag8
ag17
ag10
ag446
aa(lp531
g13
ag3
ag34
ag15
ag6
ag7
ag8
ag44
ag10
ag446
aa(lp532
g2
ag26
ag27
ag28
ag6
ag31
ag38
ag9
ag10
ag446
aa(lp533
g13
ag3
ag4
ag15
ag6
ag7
ag16
ag17
ag10
ag446
aa(lp534
g2
ag20
ag4
ag5
ag6
ag7
ag38
ag23
ag10
ag446
aa(lp535
g13
ag3
ag4
ag15
ag6
ag7
ag38
ag23
ag10
ag446
aa(lp536
g2
ag26
ag27
ag5
ag6
ag7
ag38
ag17
ag10
ag446
aa(lp537
g25
ag26
ag27
ag28
ag6
ag7
ag38
ag23
ag10
ag446
aa(lp538
g2
ag20
ag27
ag15
ag6
ag31
ag38
ag9
ag35
ag446
aa(lp539
g2
ag26
ag27
ag5
ag52
ag7
ag16
ag9
ag10
ag446
aa(lp540
g2
ag26
ag27
ag15
ag6
ag31
ag38
ag9
ag10
ag446
aa(lp541
g2
ag26
ag27
ag28
ag6
ag7
ag38
ag17
ag10
ag446
aa(lp542
g25
ag20
ag4
ag28
ag6
ag31
ag16
ag17
ag10
ag446
aa(lp543
g2
ag26
ag27
ag28
ag6
ag31
ag38
ag17
ag10
ag446
aa(lp544
g13
ag26
ag27
ag5
ag6
ag31
ag8
ag17
ag10
ag446
aa(lp545
g2
ag26
ag27
ag28
ag6
ag31
ag38
ag17
ag10
ag446
aa(lp546
g2
ag26
ag34
ag5
ag6
ag7
ag16
ag9
ag10
ag446
aa(lp547
g13
ag26
ag27
ag5
ag52
ag7
ag8
ag17
ag10
ag446
aa(lp548
g2
ag26
ag27
ag5
ag6
ag7
ag16
ag17
ag10
ag446
aa(lp549
g2
ag20
ag27
ag15
ag52
ag7
ag16
ag9
ag10
ag446
aa(lp550
g13
ag3
ag27
ag15
ag6
ag7
ag8
ag9
ag10
ag446
aa(lp551
g2
ag20
ag4
ag15
ag6
ag7
ag8
ag9
ag10
ag446
aa(lp552
g13
ag26
ag27
ag15
ag6
ag7
ag38
ag9
ag10
ag446
aa(lp553
g2
ag20
ag34
ag5
ag6
ag7
ag16
ag44
ag10
ag446
aa(lp554
g2
ag20
ag4
ag28
ag6
ag7
ag16
ag23
ag10
ag446
aa(lp555
g2
ag26
ag27
ag28
ag6
ag7
ag16
ag17
ag10
ag446
aa(lp556
g25
ag20
ag27
ag28
ag6
ag7
ag43
ag17
ag10
ag446
aa(lp557
g2
ag3
ag4
ag15
ag6
ag31
ag8
ag44
ag10
ag446
aa(lp558
g13
ag20
ag4
ag15
ag6
ag7
ag16
ag17
ag10
ag446
aa(lp559
g2
ag26
ag27
ag28
ag6
ag31
ag38
ag9
ag10
ag446
aa(lp560
g13
ag3
ag21
ag15
ag6
ag7
ag8
ag17
ag10
ag446
aa(lp561
g13
ag20
ag21
ag15
ag6
ag7
ag16
ag23
ag10
ag446
aa(lp562
g13
ag20
ag4
ag15
ag6
ag7
ag8
ag9
ag10
ag446
aa(lp563
g13
ag26
ag27
ag15
ag6
ag31
ag38
ag17
ag10
ag446
aa(lp564
g13
ag20
ag27
ag28
ag6
ag31
ag8
ag17
ag10
ag446
aa(lp565
g13
ag26
ag27
ag15
ag6
ag7
ag16
ag23
ag10
ag446
aa(lp566
g2
ag3
ag27
ag28
ag6
ag7
ag16
ag9
ag10
ag446
aa(lp567
g2
ag26
ag27
ag28
ag6
ag31
ag38
ag9
ag10
ag446
aa(lp568
g2
ag26
ag27
ag15
ag6
ag7
ag16
ag17
ag10
ag446
aa(lp569
g2
ag20
ag27
ag5
ag6
ag7
ag38
ag9
ag10
ag446
aa(lp570
g2
ag26
ag27
ag5
ag6
ag7
ag38
ag17
ag10
ag446
aa(lp571
g2
ag20
ag4
ag28
ag6
ag31
ag16
ag17
ag10
ag446
aa(lp572
g2
ag26
ag27
ag28
ag6
ag31
ag38
ag9
ag10
ag446
aa(lp573
g13
ag20
ag27
ag15
ag6
ag7
ag8
ag23
ag10
ag446
aa(lp574
g2
ag26
ag27
ag5
ag52
ag7
ag16
ag9
ag10
ag446
aa(lp575
g13
ag26
ag27
ag15
ag6
ag7
ag16
ag9
ag10
ag446
aa(lp576
g13
ag26
ag27
ag15
ag6
ag7
ag8
ag17
ag10
ag446
aa(lp577
g2
ag26
ag27
ag28
ag6
ag7
ag38
ag17
ag10
ag446
aa(lp578
g2
ag26
ag27
ag28
ag52
ag7
ag38
ag9
ag10
ag446
aa(lp579
g13
ag26
ag27
ag5
ag6
ag7
ag38
ag17
ag10
ag446
aa(lp580
g13
ag20
ag27
ag15
ag6
ag7
ag38
ag9
ag10
ag446
aa(lp581
g2
ag26
ag27
ag28
ag6
ag31
ag38
ag17
ag10
ag446
aa(lp582
g2
ag26
ag27
ag5
ag6
ag7
ag16
ag9
ag10
ag446
aa(lp583
g2
ag26
ag27
ag5
ag6
ag31
ag16
ag9
ag10
ag446
aa(lp584
g13
ag26
ag27
ag5
ag6
ag31
ag38
ag17
ag10
ag446
aa(lp585
g2
ag26
ag27
ag5
ag6
ag7
ag38
ag9
ag10
ag446
aa(lp586
g25
ag3
ag21
ag28
ag6
ag7
ag16
ag23
ag10
ag446
aa(lp587
g2
ag20
ag4
ag15
ag6
ag31
ag16
ag9
ag10
ag446
aa(lp588
g2
ag20
ag27
ag28
ag6
ag7
ag38
ag17
ag10
ag446
aa(lp589
g13
ag26
ag27
ag15
ag6
ag7
ag16
ag17
ag10
ag446
aa(lp590
g2
ag26
ag4
ag5
ag6
ag31
ag16
ag23
ag10
ag446
aa(lp591
g13
ag26
ag27
ag5
ag6
ag31
ag38
ag17
ag10
ag446
aa(lp592
g13
ag20
ag4
ag15
ag6
ag7
ag38
ag17
ag10
ag446
aa(lp593
g13
ag20
ag4
ag15
ag6
ag7
ag38
ag17
ag10
ag446
aa(lp594
g13
ag20
ag27
ag15
ag6
ag7
ag16
ag23
ag35
ag446
aa(lp595
g13
ag14
ag34
ag15
ag6
ag7
ag16
ag9
ag10
ag446
aa(lp596
g25
ag26
ag27
ag28
ag6
ag7
ag38
ag9
ag10
ag446
aa(lp597
g2
ag26
ag27
ag28
ag52
ag31
ag38
ag17
ag10
ag446
aa(lp598
g2
ag20
ag27
ag28
ag52
ag7
ag8
ag9
ag10
ag446
aa(lp599
g13
ag20
ag4
ag5
ag6
ag7
ag8
ag17
ag10
ag446
aa(lp600
g13
ag26
ag27
ag5
ag52
ag31
ag38
ag17
ag10
ag446
aa(lp601
g13
ag26
ag27
ag5
ag52
ag7
ag8
ag17
ag10
ag446
aa(lp602
g25
ag26
ag27
ag28
ag6
ag7
ag8
ag44
ag10
ag446
aa(lp603
g13
ag20
ag27
ag5
ag52
ag31
ag8
ag17
ag10
ag446
aa(lp604
g2
ag3
ag4
ag28
ag6
ag31
ag43
ag17
ag10
ag446
aa(lp605
g13
ag26
ag27
ag5
ag52
ag31
ag8
ag17
ag10
ag446
aa(lp606
g2
ag26
ag27
ag5
ag52
ag31
ag8
ag17
ag10
ag446
aa(lp607
g13
ag26
ag27
ag5
ag52
ag31
ag8
ag17
ag10
ag446
aa(lp608
g13
ag26
ag27
ag5
ag52
ag7
ag38
ag17
ag10
ag446
aa(lp609
g2
ag26
ag27
ag5
ag6
ag7
ag8
ag9
ag10
ag446
aa(lp610
g2
ag26
ag27
ag28
ag6
ag31
ag38
ag9
ag10
ag446
aa(lp611
g13
ag26
ag27
ag15
ag6
ag7
ag38
ag17
ag10
ag446
aa(lp612
g13
ag26
ag27
ag15
ag52
ag7
ag38
ag17
ag10
ag446
aa(lp613
g2
ag26
ag27
ag28
ag6
ag7
ag38
ag9
ag10
ag446
aa(lp614
g2
ag26
ag27
ag28
ag6
ag7
ag38
ag17
ag10
ag446
aa(lp615
g13
ag26
ag27
ag5
ag6
ag31
ag38
ag17
ag10
ag446
aa(lp616
g13
ag26
ag27
ag5
ag6
ag7
ag38
ag17
ag10
ag446
aa(lp617
g2
ag26
ag27
ag28
ag6
ag7
ag38
ag17
ag10
ag446
aa(lp618
g2
ag26
ag4
ag15
ag6
ag7
ag8
ag17
ag10
ag446
aa(lp619
g2
ag26
ag27
ag28
ag6
ag7
ag16
ag17
ag10
ag446
aa(lp620
g13
ag26
ag27
ag15
ag6
ag7
ag38
ag17
ag10
ag446
aa(lp621
g25
ag26
ag27
ag28
ag6
ag7
ag8
ag17
ag10
ag446
aa(lp622
g2
ag20
ag27
ag5
ag6
ag7
ag8
ag23
ag10
ag446
aa(lp623
g2
ag20
ag27
ag15
ag6
ag7
ag38
ag23
ag10
ag446
aa(lp624
g2
ag26
ag27
ag28
ag6
ag31
ag38
ag9
ag10
ag446
aa(lp625
g13
ag26
ag27
ag5
ag6
ag7
ag38
ag17
ag10
ag446
aa(lp626
g13
ag26
ag27
ag15
ag6
ag7
ag38
ag17
ag10
ag446
aa(lp627
g13
ag26
ag27
ag15
ag6
ag7
ag38
ag9
ag10
ag446
aa(lp628
g13
ag26
ag27
ag5
ag6
ag7
ag38
ag17
ag10
ag446
aa(lp629
g2
ag26
ag27
ag15
ag6
ag7
ag8
ag17
ag10
ag446
aa(lp630
g2
ag3
ag27
ag5
ag52
ag31
ag16
ag17
ag35
ag446
aa(lp631
g2
ag26
ag21
ag28
ag52
ag7
ag38
ag9
ag10
ag446
aa(lp632
g13
ag26
ag27
ag5
ag52
ag7
ag16
ag17
ag10
ag446
aa(lp633
g13
ag26
ag27
ag5
ag52
ag7
ag8
ag17
ag10
ag446
aa(lp634
g2
ag26
ag27
ag28
ag52
ag7
ag38
ag17
ag10
ag446
aa(lp635
g13
ag20
ag27
ag28
ag52
ag7
ag16
ag17
ag10
ag446
aa(lp636
g2
ag26
ag27
ag28
ag52
ag7
ag8
ag17
ag10
ag446
aa(lp637
g13
ag20
ag27
ag5
ag52
ag31
ag16
ag17
ag10
ag446
aa(lp638
g2
ag20
ag27
ag5
ag52
ag7
ag8
ag17
ag10
ag446
aa(lp639
g13
ag26
ag27
ag15
ag52
ag7
ag8
ag17
ag10
ag446
aa(lp640
g13
ag20
ag4
ag15
ag52
ag7
ag8
ag17
ag10
ag446
aa(lp641
g13
ag26
ag27
ag15
ag52
ag7
ag8
ag17
ag10
ag446
aa(lp642
g2
ag26
ag27
ag5
ag52
ag31
ag16
ag17
ag10
ag446
aa(lp643
g13
ag26
ag27
ag5
ag52
ag31
ag8
ag17
ag10
ag446
aa(lp644
g13
ag26
ag27
ag5
ag52
ag31
ag38
ag17
ag10
ag446
aa(lp645
g13
ag26
ag27
ag5
ag52
ag7
ag16
ag17
ag10
ag446
aa(lp646
g2
ag20
ag27
ag15
ag6
ag7
ag8
ag17
ag10
ag446
aa(lp647
g13
ag26
ag4
ag15
ag6
ag31
ag38
ag17
ag10
ag446
aa(lp648
g2
ag3
ag21
ag15
ag6
ag7
ag16
ag17
ag10
ag446
aa(lp649
g2
ag26
ag27
ag15
ag6
ag7
ag16
ag17
ag10
ag446
aa(lp650
g13
ag26
ag27
ag5
ag6
ag7
ag38
ag17
ag10
ag446
aa(lp651
g13
ag26
ag27
ag15
ag6
ag7
ag38
ag17
ag10
ag446
aa(lp652
g2
ag20
ag4
ag28
ag6
ag7
ag8
ag9
ag10
ag446
aa(lp653
g13
ag26
ag27
ag5
ag6
ag7
ag38
ag17
ag10
ag446
aa(lp654
g2
ag26
ag27
ag5
ag52
ag7
ag8
ag17
ag10
ag446
aa(lp655
g13
ag26
ag27
ag15
ag52
ag7
ag38
ag17
ag10
ag446
aa(lp656
g13
ag26
ag27
ag15
ag6
ag7
ag8
ag17
ag10
ag446
aa(lp657
g2
ag26
ag27
ag28
ag52
ag31
ag8
ag17
ag10
ag446
aa(lp658
g13
ag26
ag27
ag5
ag6
ag7
ag38
ag17
ag10
ag446
aa(lp659
g13
ag26
ag27
ag5
ag52
ag7
ag38
ag17
ag10
ag446
aa(lp660
g13
ag26
ag27
ag15
ag6
ag7
ag38
ag17
ag10
ag446
aa(lp661
g13
ag26
ag27
ag5
ag6
ag7
ag38
ag17
ag10
ag446
aa(lp662
g2
ag26
ag27
ag5
ag6
ag7
ag38
ag17
ag10
ag446
aa(lp663
g13
ag26
ag27
ag5
ag52
ag7
ag38
ag17
ag10
ag446
aa(lp664
g13
ag26
ag27
ag5
ag6
ag31
ag38
ag17
ag10
ag446
aa(lp665
g2
ag20
ag4
ag15
ag6
ag7
ag16
ag17
ag10
ag446
aa(lp666
g2
ag20
ag4
ag15
ag6
ag7
ag16
ag17
ag10
ag446
aa(lp667
g2
ag3
ag21
ag15
ag6
ag7
ag8
ag23
ag10
ag446
aa(lp668
g2
ag20
ag21
ag15
ag6
ag7
ag8
ag17
ag10
ag446
aa(lp669
g13
ag14
ag34
ag15
ag6
ag7
ag16
ag17
ag35
ag446
aa(lp670
g2
ag3
ag27
ag5
ag6
ag7
ag38
ag17
ag35
ag446
aa(lp671
g2
ag20
ag27
ag15
ag6
ag7
ag38
ag23
ag35
ag446
aa(lp672
g13
ag26
ag27
ag5
ag6
ag31
ag38
ag17
ag10
ag446
aa(lp673
g2
ag20
ag4
ag5
ag6
ag7
ag16
ag17
ag10
aS'short_term_concept'
p674
aa(lp675
g2
ag3
ag21
ag15
ag6
ag7
ag16
ag44
ag10
ag674
aa(lp676
g13
ag20
ag27
ag15
ag6
ag7
ag38
ag23
ag10
ag674
aa(lp677
g2
ag3
ag21
ag15
ag6
ag7
ag16
ag44
ag10
ag674
aa(lp678
g2
ag26
ag27
ag28
ag6
ag31
ag38
ag17
ag10
ag674
aa(lp679
g13
ag26
ag27
ag28
ag6
ag31
ag38
ag17
ag10
ag674
aa(lp680
g25
ag3
ag21
ag28
ag6
ag7
ag16
ag23
ag10
ag674
aa(lp681
g2
ag14
ag21
ag5
ag6
ag7
ag8
ag9
ag10
ag674
aa(lp682
g2
ag3
ag27
ag28
ag6
ag7
ag38
ag17
ag10
ag674
aa(lp683
g25
ag20
ag4
ag28
ag6
ag7
ag16
ag9
ag10
ag674
aa(lp684
g2
ag3
ag21
ag5
ag6
ag7
ag8
ag17
ag10
ag674
aa(lp685
g13
ag26
ag27
ag15
ag6
ag7
ag38
ag17
ag10
ag674
aa(lp686
g2
ag3
ag27
ag5
ag6
ag31
ag16
ag9
ag10
ag674
aa(lp687
g2
ag26
ag27
ag28
ag6
ag7
ag16
ag17
ag10
ag674
aa(lp688
g25
ag20
ag27
ag28
ag6
ag7
ag38
ag9
ag10
ag674
aa(lp689
g2
ag26
ag27
ag28
ag6
ag7
ag16
ag23
ag10
ag674
aa(lp690
g2
ag3
ag4
ag15
ag6
ag31
ag8
ag9
ag10
ag674
aa(lp691
g2
ag20
ag4
ag28
ag6
ag31
ag16
ag9
ag10
ag674
aa(lp692
g2
ag3
ag4
ag28
ag6
ag7
ag16
ag44
ag10
ag674
aa(lp693
g13
ag26
ag27
ag5
ag6
ag7
ag38
ag17
ag10
ag674
aa(lp694
g2
ag26
ag27
ag28
ag6
ag7
ag8
ag17
ag10
ag674
aa(lp695
g2
ag26
ag27
ag28
ag6
ag7
ag38
ag17
ag10
ag674
aa(lp696
g2
ag14
ag27
ag5
ag6
ag7
ag43
ag17
ag35
ag674
aa(lp697
g2
ag20
ag27
ag15
ag6
ag7
ag16
ag17
ag10
ag674
aa(lp698
g13
ag20
ag27
ag15
ag6
ag31
ag8
ag17
ag10
ag674
aa(lp699
g2
ag3
ag27
ag5
ag6
ag7
ag43
ag17
ag10
ag674
aa(lp700
g2
ag3
ag27
ag5
ag6
ag7
ag8
ag17
ag10
ag674
aa(lp701
g2
ag3
ag4
ag15
ag6
ag31
ag16
ag9
ag10
ag674
aa(lp702
g25
ag20
ag4
ag28
ag6
ag7
ag8
ag17
ag10
ag674
aa(lp703
g2
ag3
ag27
ag5
ag6
ag7
ag16
ag17
ag10
ag674
aa(lp704
g2
ag20
ag4
ag28
ag6
ag7
ag16
ag9
ag10
ag674
aa(lp705
g13
ag14
ag4
ag5
ag6
ag7
ag16
ag23
ag10
ag674
aa(lp706
g2
ag20
ag27
ag5
ag6
ag7
ag38
ag9
ag10
ag674
aa(lp707
g13
ag26
ag4
ag15
ag6
ag7
ag38
ag17
ag10
ag674
aa(lp708
g2
ag26
ag27
ag15
ag6
ag7
ag38
ag17
ag10
ag674
aa(lp709
g2
ag20
ag4
ag15
ag6
ag7
ag16
ag17
ag10
ag674
aa(lp710
g2
ag20
ag27
ag5
ag6
ag7
ag38
ag17
ag10
ag674
aa(lp711
g2
ag3
ag21
ag5
ag6
ag7
ag8
ag44
ag10
ag674
aa(lp712
g2
ag3
ag27
ag5
ag6
ag7
ag8
ag44
ag10
ag674
aa(lp713
g25
ag26
ag4
ag28
ag6
ag7
ag8
ag23
ag10
ag674
aa(lp714
g2
ag26
ag27
ag5
ag6
ag7
ag38
ag17
ag10
ag674
aa(lp715
g2
ag26
ag27
ag28
ag52
ag7
ag38
ag17
ag10
ag674
aa(lp716
g13
ag26
ag27
ag28
ag52
ag31
ag38
ag17
ag10
ag674
aa(lp717
g2
ag20
ag4
ag28
ag6
ag7
ag16
ag9
ag10
ag674
aa(lp718
g2
ag20
ag4
ag5
ag6
ag7
ag16
ag9
ag10
ag674
aa(lp719
g13
ag26
ag27
ag15
ag52
ag7
ag38
ag23
ag35
ag674
aa(lp720
g13
ag26
ag27
ag5
ag52
ag7
ag38
ag17
ag10
ag674
aa(lp721
g13
ag26
ag27
ag28
ag6
ag7
ag16
ag9
ag10
ag674
aa(lp722
g13
ag20
ag27
ag5
ag6
ag7
ag16
ag23
ag10
ag674
aa(lp723
g2
ag3
ag27
ag5
ag6
ag7
ag16
ag9
ag10
ag674
aa(lp724
g25
ag26
ag27
ag28
ag6
ag7
ag38
ag9
ag10
ag674
aa(lp725
g2
ag3
ag4
ag28
ag6
ag7
ag8
ag9
ag10
ag674
aa(lp726
g2
ag3
ag27
ag5
ag6
ag7
ag16
ag17
ag10
ag674
aa(lp727
g25
ag26
ag27
ag28
ag6
ag7
ag8
ag9
ag10
ag674
aa(lp728
g13
ag26
ag27
ag15
ag6
ag7
ag8
ag17
ag10
ag674
aa(lp729
g2
ag20
ag27
ag28
ag6
ag7
ag16
ag23
ag10
ag674
aa(lp730
g2
ag26
ag27
ag28
ag6
ag7
ag38
ag17
ag10
ag674
aa(lp731
g13
ag26
ag4
ag28
ag6
ag31
ag8
ag23
ag10
ag674
aa(lp732
g25
ag26
ag27
ag28
ag6
ag7
ag16
ag44
ag10
ag674
aa(lp733
g13
ag3
ag4
ag15
ag6
ag7
ag16
ag9
ag10
ag674
aa(lp734
g2
ag14
ag21
ag15
ag6
ag31
ag38
ag23
ag10
ag674
aa(lp735
g2
ag3
ag4
ag5
ag6
ag7
ag8
ag44
ag10
ag674
aa(lp736
g25
ag20
ag21
ag28
ag6
ag7
ag8
ag44
ag10
ag674
aa(lp737
g25
ag3
ag4
ag28
ag6
ag7
ag8
ag44
ag10
ag674
aa(lp738
g2
ag20
ag27
ag5
ag6
ag31
ag8
ag17
ag10
ag674
aa(lp739
g2
ag20
ag4
ag5
ag6
ag7
ag8
ag9
ag10
ag674
aa(lp740
g2
ag26
ag27
ag5
ag6
ag7
ag38
ag17
ag10
ag674
aa(lp741
g2
ag26
ag4
ag28
ag6
ag7
ag16
ag9
ag10
ag674
aa(lp742
g2
ag3
ag4
ag5
ag6
ag7
ag16
ag23
ag10
ag674
aa(lp743
g13
ag20
ag27
ag28
ag6
ag7
ag38
ag9
ag10
ag674
aa(lp744
g2
ag20
ag4
ag5
ag6
ag7
ag8
ag44
ag35
ag674
aa(lp745
g2
ag26
ag27
ag5
ag6
ag7
ag16
ag17
ag10
ag674
aa(lp746
g2
ag20
ag4
ag15
ag6
ag7
ag16
ag17
ag10
ag674
aa(lp747
g13
ag20
ag4
ag15
ag6
ag31
ag16
ag9
ag10
ag674
aa(lp748
g2
ag3
ag27
ag5
ag6
ag7
ag16
ag9
ag10
ag674
aa(lp749
g13
ag26
ag27
ag5
ag6
ag7
ag38
ag17
ag10
ag674
aa(lp750
g2
ag26
ag27
ag5
ag52
ag7
ag38
ag17
ag10
ag674
aa(lp751
g13
ag26
ag27
ag15
ag6
ag7
ag38
ag17
ag10
ag674
aa(lp752
g2
ag26
ag27
ag5
ag52
ag7
ag38
ag17
ag10
ag674
aa(lp753
g13
ag26
ag27
ag5
ag6
ag7
ag38
ag17
ag10
ag674
aa(lp754
g13
ag20
ag27
ag5
ag6
ag31
ag38
ag17
ag10
ag674
aa(lp755
g25
ag26
ag27
ag28
ag6
ag7
ag8
ag9
ag10
ag674
aa(lp756
g2
ag26
ag27
ag5
ag6
ag7
ag38
ag17
ag10
ag674
aa(lp757
g2
ag26
ag27
ag28
ag52
ag7
ag16
ag9
ag10
ag674
aa(lp758
g2
ag26
ag27
ag28
ag6
ag7
ag38
ag9
ag10
ag674
aa(lp759
g25
ag3
ag4
ag28
ag6
ag31
ag16
ag23
ag10
ag674
aa(lp760
g25
ag26
ag27
ag28
ag6
ag7
ag16
ag9
ag10
ag674
aa(lp761
g2
ag26
ag27
ag5
ag6
ag7
ag38
ag9
ag10
ag674
aa(lp762
g2
ag26
ag27
ag28
ag6
ag31
ag8
ag23
ag10
ag674
aa(lp763
g2
ag14
ag21
ag28
ag6
ag7
ag8
ag44
ag10
ag674
aa(lp764
g2
ag20
ag4
ag15
ag52
ag7
ag16
ag44
ag10
ag674
aa(lp765
g25
ag3
ag27
ag28
ag6
ag7
ag8
ag9
ag10
ag674
aa(lp766
g2
ag3
ag21
ag15
ag6
ag31
ag8
ag9
ag10
ag674
aa(lp767
g2
ag3
ag21
ag28
ag6
ag7
ag16
ag17
ag10
ag674
aa(lp768
g25
ag20
ag4
ag5
ag6
ag7
ag8
ag9
ag10
ag674
aa(lp769
g2
ag3
ag21
ag15
ag6
ag7
ag16
ag9
ag10
ag674
aa(lp770
g2
ag26
ag27
ag28
ag52
ag31
ag38
ag17
ag10
ag674
aa(lp771
g2
ag26
ag27
ag28
ag6
ag31
ag38
ag9
ag10
ag674
aa(lp772
g2
ag14
ag4
ag15
ag6
ag7
ag16
ag9
ag10
ag674
aa(lp773
g25
ag20
ag27
ag28
ag6
ag7
ag8
ag9
ag10
ag674
aa(lp774
g2
ag3
ag27
ag15
ag6
ag7
ag8
ag9
ag10
ag674
aa(lp775
g2
ag3
ag27
ag28
ag6
ag7
ag16
ag9
ag10
ag674
aa(lp776
g13
ag26
ag27
ag5
ag6
ag7
ag16
ag23
ag10
ag674
aa(lp777
g2
ag20
ag27
ag5
ag6
ag7
ag8
ag9
ag10
ag674
aa(lp778
g2
ag3
ag4
ag15
ag6
ag7
ag16
ag9
ag10
ag674
aa(lp779
g13
ag26
ag27
ag15
ag6
ag7
ag38
ag17
ag10
ag674
aa(lp780
g2
ag20
ag27
ag5
ag6
ag7
ag38
ag17
ag10
ag674
aa(lp781
g25
ag26
ag27
ag28
ag6
ag7
ag16
ag17
ag10
ag674
aa(lp782
g2
ag3
ag27
ag28
ag6
ag7
ag38
ag17
ag10
ag674
aa(lp783
g2
ag26
ag27
ag28
ag6
ag7
ag38
ag17
ag10
ag674
aa(lp784
g13
ag26
ag27
ag5
ag6
ag7
ag8
ag17
ag10
ag674
aa(lp785
g2
ag20
ag27
ag5
ag6
ag7
ag16
ag9
ag10
ag674
aa(lp786
g2
ag3
ag4
ag28
ag6
ag7
ag8
ag44
ag10
ag674
aa(lp787
g2
ag26
ag27
ag5
ag6
ag7
ag38
ag17
ag10
ag674
aa(lp788
g2
ag26
ag27
ag15
ag6
ag7
ag38
ag17
ag10
ag674
aa(lp789
g2
ag26
ag27
ag28
ag6
ag7
ag16
ag9
ag10
ag674
aa(lp790
g13
ag20
ag27
ag5
ag6
ag7
ag8
ag9
ag10
ag674
aa(lp791
g2
ag26
ag27
ag28
ag6
ag7
ag38
ag9
ag10
ag674
aa(lp792
g2
ag26
ag27
ag28
ag6
ag7
ag16
ag9
ag10
ag674
aa(lp793
g13
ag20
ag4
ag15
ag6
ag7
ag38
ag9
ag10
ag674
aa(lp794
g2
ag3
ag21
ag15
ag6
ag31
ag8
ag17
ag10
ag674
aa(lp795
g25
ag20
ag27
ag5
ag6
ag7
ag8
ag9
ag10
ag674
aa(lp796
g2
ag20
ag4
ag5
ag6
ag7
ag16
ag9
ag10
ag674
aa(lp797
g2
ag20
ag27
ag5
ag6
ag7
ag16
ag9
ag10
ag674
aa(lp798
g13
ag26
ag27
ag15
ag6
ag7
ag8
ag9
ag10
ag674
aa(lp799
g13
ag26
ag27
ag15
ag6
ag7
ag8
ag17
ag10
ag674
aa(lp800
g2
ag26
ag27
ag28
ag52
ag7
ag38
ag17
ag10
ag674
aa(lp801
g2
ag26
ag27
ag5
ag6
ag7
ag38
ag17
ag10
ag674
aa(lp802
g2
ag26
ag27
ag5
ag6
ag7
ag16
ag17
ag10
ag674
aa(lp803
g25
ag26
ag27
ag28
ag6
ag7
ag38
ag9
ag10
ag674
aa(lp804
g13
ag26
ag27
ag28
ag52
ag7
ag38
ag9
ag10
ag674
aa(lp805
g2
ag20
ag27
ag5
ag6
ag7
ag16
ag9
ag10
ag674
aa(lp806
g2
ag26
ag27
ag28
ag6
ag31
ag16
ag17
ag10
ag674
aa(lp807
g13
ag20
ag27
ag15
ag6
ag31
ag38
ag17
ag10
ag674
aa(lp808
g13
ag26
ag4
ag5
ag6
ag7
ag16
ag17
ag10
ag674
aa(lp809
g13
ag26
ag27
ag5
ag6
ag31
ag38
ag17
ag10
ag674
aa(lp810
g2
ag26
ag27
ag28
ag52
ag31
ag38
ag9
ag10
ag674
aa(lp811
g2
ag26
ag27
ag5
ag6
ag31
ag38
ag17
ag10
ag674
aa(lp812
g2
ag26
ag27
ag28
ag6
ag7
ag38
ag9
ag10
ag674
aa(lp813
g13
ag26
ag27
ag5
ag6
ag7
ag8
ag17
ag10
ag674
aa(lp814
g13
ag26
ag27
ag5
ag6
ag7
ag38
ag17
ag10
ag674
aa(lp815
g13
ag26
ag27
ag15
ag6
ag7
ag8
ag17
ag10
ag674
aa(lp816
g13
ag26
ag27
ag5
ag6
ag7
ag38
ag17
ag10
ag674
aa(lp817
g2
ag20
ag4
ag5
ag6
ag7
ag8
ag23
ag10
ag674
aa(lp818
g25
ag14
ag4
ag28
ag6
ag7
ag16
ag44
ag10
ag674
aa(lp819
g25
ag3
ag21
ag28
ag6
ag7
ag8
ag9
ag10
ag674
aa(lp820
g2
ag20
ag27
ag5
ag6
ag7
ag8
ag9
ag10
ag674
aa(lp821
g25
ag3
ag21
ag28
ag6
ag7
ag16
ag23
ag35
ag674
aa(lp822
g2
ag26
ag27
ag28
ag6
ag7
ag38
ag17
ag10
ag674
aa(lp823
g2
ag20
ag27
ag15
ag6
ag7
ag16
ag44
ag10
ag674
aa(lp824
g2
ag20
ag4
ag5
ag6
ag31
ag16
ag23
ag10
ag674
aa(lp825
g13
ag20
ag27
ag15
ag6
ag31
ag38
ag17
ag10
ag674
aa(lp826
g2
ag20
ag4
ag5
ag6
ag31
ag8
ag44
ag10
ag674
aa(lp827
g25
ag26
ag27
ag28
ag6
ag7
ag38
ag17
ag10
ag674
aa(lp828
g2
ag26
ag27
ag15
ag6
ag7
ag8
ag17
ag10
ag674
aa(lp829
g2
ag26
ag27
ag28
ag52
ag31
ag38
ag9
ag10
ag674
aa(lp830
g2
ag20
ag4
ag5
ag6
ag7
ag8
ag44
ag10
ag674
aa(lp831
g13
ag26
ag27
ag5
ag6
ag7
ag8
ag17
ag10
ag674
aa(lp832
g2
ag3
ag21
ag15
ag6
ag7
ag8
ag44
ag10
ag674
aa(lp833
g25
ag3
ag21
ag28
ag6
ag7
ag43
ag9
ag10
ag674
aa(lp834
g2
ag3
ag4
ag15
ag6
ag31
ag16
ag44
ag10
ag674
aa(lp835
g25
ag3
ag4
ag28
ag6
ag7
ag16
ag44
ag10
ag674
aa(lp836
g13
ag3
ag21
ag15
ag6
ag7
ag16
ag17
ag10
ag674
aa(lp837
g2
ag3
ag27
ag5
ag6
ag7
ag16
ag17
ag10
ag674
aa(lp838
g2
ag26
ag27
ag28
ag6
ag31
ag38
ag17
ag10
ag674
aa(lp839
g2
ag3
ag4
ag5
ag6
ag7
ag16
ag9
ag10
ag674
aa(lp840
g2
ag3
ag27
ag5
ag6
ag31
ag8
ag17
ag10
ag674
aa(lp841
g25
ag20
ag4
ag28
ag6
ag7
ag8
ag23
ag10
ag674
aa(lp842
g25
ag20
ag4
ag28
ag6
ag7
ag8
ag44
ag10
ag674
aa(lp843
g2
ag14
ag21
ag15
ag6
ag7
ag8
ag23
ag35
ag674
aa(lp844
g2
ag20
ag4
ag5
ag6
ag7
ag16
ag23
ag10
ag674
aa(lp845
g13
ag20
ag27
ag15
ag6
ag7
ag38
ag9
ag10
ag674
aa(lp846
g25
ag20
ag27
ag28
ag6
ag7
ag8
ag44
ag10
ag674
aa(lp847
g2
ag3
ag27
ag5
ag6
ag7
ag16
ag9
ag10
ag674
aa(lp848
g2
ag20
ag4
ag28
ag6
ag7
ag16
ag23
ag10
ag674
aa(lp849
g25
ag26
ag27
ag28
ag6
ag7
ag16
ag9
ag10
ag674
aa(lp850
g2
ag3
ag27
ag5
ag6
ag7
ag16
ag23
ag10
ag674
aa(lp851
g2
ag14
ag4
ag5
ag6
ag7
ag16
ag17
ag10
ag674
aa(lp852
g2
ag14
ag34
ag5
ag6
ag7
ag43
ag23
ag35
ag674
aa(lp853
g2
ag20
ag27
ag28
ag6
ag7
ag16
ag9
ag10
ag674
aa(lp854
g2
ag20
ag27
ag28
ag6
ag7
ag8
ag9
ag10
ag674
aa(lp855
g2
ag20
ag4
ag5
ag6
ag7
ag16
ag44
ag10
ag674
aa(lp856
g2
ag20
ag27
ag15
ag6
ag7
ag38
ag23
ag10
ag674
aa(lp857
g2
ag14
ag4
ag5
ag6
ag7
ag16
ag9
ag10
ag674
aa(lp858
g2
ag20
ag27
ag28
ag6
ag7
ag38
ag9
ag10
ag674
aa(lp859
g2
ag20
ag4
ag5
ag6
ag7
ag16
ag9
ag10
ag674
aa(lp860
g2
ag26
ag27
ag5
ag6
ag7
ag38
ag17
ag10
ag674
aa(lp861
g25
ag26
ag27
ag28
ag6
ag31
ag8
ag17
ag10
ag674
aa(lp862
g25
ag26
ag27
ag28
ag6
ag7
ag8
ag17
ag10
ag674
aa(lp863
g2
ag3
ag4
ag15
ag6
ag7
ag8
ag17
ag10
ag674
aa(lp864
g25
ag20
ag27
ag28
ag6
ag7
ag16
ag9
ag10
ag674
aa(lp865
g25
ag20
ag4
ag28
ag6
ag7
ag16
ag9
ag10
ag674
aa(lp866
g13
ag14
ag27
ag15
ag6
ag7
ag8
ag44
ag10
ag674
aa(lp867
g13
ag3
ag27
ag5
ag6
ag7
ag8
ag9
ag10
ag674
aa(lp868
g2
ag26
ag27
ag5
ag6
ag7
ag16
ag17
ag35
ag674
aa(lp869
g2
ag3
ag4
ag28
ag6
ag7
ag8
ag9
ag10
ag674
aa(lp870
g13
ag26
ag27
ag15
ag6
ag31
ag16
ag17
ag10
ag674
aa(lp871
g2
ag20
ag4
ag5
ag6
ag7
ag8
ag44
ag10
ag674
aa(lp872
g2
ag26
ag4
ag5
ag6
ag7
ag8
ag17
ag10
ag674
aa(lp873
g2
ag14
ag27
ag5
ag6
ag7
ag16
ag17
ag35
ag674
aa(lp874
g25
ag26
ag27
ag28
ag6
ag31
ag8
ag17
ag10
ag674
aa(lp875
g2
ag20
ag27
ag28
ag6
ag7
ag16
ag17
ag10
ag674
aa(lp876
g2
ag20
ag27
ag28
ag6
ag7
ag16
ag17
ag10
ag674
aa(lp877
g2
ag3
ag4
ag5
ag6
ag31
ag8
ag23
ag10
ag674
aa(lp878
g25
ag14
ag21
ag5
ag6
ag7
ag16
ag44
ag35
ag674
aa(lp879
g2
ag20
ag4
ag28
ag6
ag7
ag8
ag44
ag10
ag674
aa(lp880
g2
ag3
ag4
ag28
ag6
ag7
ag8
ag17
ag10
ag674
aa(lp881
g13
ag3
ag4
ag5
ag6
ag7
ag8
ag17
ag10
ag674
aa(lp882
g2
ag3
ag21
ag28
ag6
ag7
ag16
ag17
ag10
ag674
aa(lp883
g13
ag26
ag27
ag15
ag6
ag7
ag38
ag17
ag10
ag674
aa(lp884
g2
ag20
ag4
ag5
ag6
ag7
ag16
ag17
ag10
ag674
aa(lp885
g25
ag20
ag27
ag28
ag6
ag31
ag38
ag17
ag10
ag674
aa(lp886
g2
ag20
ag4
ag15
ag6
ag7
ag16
ag9
ag10
ag674
aa(lp887
g2
ag20
ag27
ag5
ag6
ag7
ag16
ag9
ag10
ag674
aa(lp888
g2
ag3
ag4
ag5
ag6
ag7
ag16
ag17
ag10
ag674
aa(lp889
g2
ag26
ag27
ag28
ag52
ag7
ag16
ag17
ag10
ag674
aa(lp890
g2
ag3
ag27
ag28
ag6
ag7
ag16
ag23
ag10
ag674
aa(lp891
g2
ag20
ag27
ag28
ag6
ag7
ag16
ag9
ag10
ag674
aa(lp892
g2
ag20
ag27
ag5
ag6
ag7
ag16
ag23
ag10
ag674
aa(lp893
g13
ag20
ag27
ag15
ag6
ag7
ag16
ag23
ag10
ag674
aa(lp894
g25
ag20
ag21
ag28
ag6
ag31
ag16
ag23
ag10
ag674
aa(lp895
g25
ag26
ag4
ag28
ag6
ag7
ag16
ag17
ag10
ag674
aa(lp896
g2
ag14
ag27
ag5
ag6
ag7
ag16
ag23
ag10
ag674
aa(lp897
g2
ag3
ag4
ag28
ag6
ag7
ag16
ag44
ag10
ag674
aa(lp898
g2
ag14
ag21
ag5
ag6
ag31
ag16
ag23
ag10
ag674
aa(lp899
g25
ag14
ag21
ag5
ag6
ag7
ag16
ag23
ag35
ag674
aa(lp900
g25
ag26
ag27
ag5
ag6
ag7
ag16
ag9
ag10
ag674
aa(lp901
g2
ag20
ag27
ag15
ag6
ag7
ag8
ag17
ag10
ag674
aa(lp902
g25
ag26
ag27
ag5
ag6
ag7
ag16
ag23
ag10
ag674
aa(lp903
g2
ag3
ag27
ag5
ag6
ag7
ag16
ag17
ag10
ag674
aa(lp904
g2
ag20
ag4
ag5
ag6
ag7
ag16
ag9
ag10
ag674
aa(lp905
g2
ag3
ag4
ag28
ag6
ag7
ag16
ag9
ag10
ag674
aa(lp906
g2
ag26
ag4
ag5
ag6
ag7
ag16
ag9
ag10
ag674
aa(lp907
g2
ag26
ag27
ag5
ag6
ag31
ag38
ag17
ag10
ag674
aa(lp908
g2
ag20
ag27
ag5
ag6
ag31
ag38
ag9
ag10
ag674
aa(lp909
g13
ag26
ag27
ag15
ag6
ag7
ag38
ag17
ag10
ag674
aa(lp910
g2
ag26
ag27
ag28
ag6
ag7
ag16
ag17
ag10
ag674
aa(lp911
g2
ag20
ag27
ag15
ag6
ag7
ag38
ag17
ag10
ag674
aa(lp912
g25
ag20
ag27
ag28
ag6
ag7
ag16
ag23
ag10
ag674
aa(lp913
g25
ag14
ag4
ag28
ag6
ag7
ag16
ag9
ag35
ag674
aa(lp914
g25
ag20
ag27
ag28
ag6
ag7
ag16
ag9
ag10
ag674
aa(lp915
g2
ag20
ag4
ag5
ag6
ag7
ag16
ag9
ag10
ag674
aa(lp916
g25
ag20
ag27
ag28
ag52
ag31
ag38
ag17
ag10
ag674
aa(lp917
g25
ag20
ag21
ag28
ag6
ag7
ag16
ag9
ag10
ag674
aa(lp918
g2
ag20
ag4
ag28
ag52
ag7
ag8
ag9
ag10
ag674
aa(lp919
g2
ag26
ag27
ag5
ag52
ag31
ag8
ag17
ag10
ag674
aa(lp920
g2
ag20
ag27
ag5
ag6
ag31
ag16
ag17
ag10
ag674
aa(lp921
g2
ag26
ag27
ag5
ag6
ag7
ag8
ag9
ag10
ag674
aa(lp922
g2
ag20
ag27
ag15
ag6
ag7
ag16
ag23
ag10
ag674
aa(lp923
g2
ag26
ag27
ag28
ag52
ag31
ag16
ag9
ag10
ag674
aa(lp924
g25
ag3
ag27
ag28
ag6
ag7
ag16
ag9
ag10
ag674
aa(lp925
g13
ag20
ag4
ag28
ag52
ag7
ag16
ag17
ag10
ag674
aa(lp926
g2
ag26
ag4
ag28
ag52
ag7
ag16
ag17
ag10
ag674
aa(lp927
g2
ag3
ag21
ag5
ag52
ag7
ag16
ag23
ag10
ag674
aa(lp928
g13
ag26
ag27
ag28
ag52
ag7
ag16
ag17
ag10
ag674
aa(lp929
g13
ag26
ag4
ag5
ag6
ag7
ag38
ag9
ag10
ag674
aa(lp930
g13
ag26
ag27
ag28
ag6
ag31
ag38
ag17
ag10
ag674
aa(lp931
g13
ag26
ag27
ag15
ag6
ag7
ag38
ag17
ag10
ag674
aa(lp932
g25
ag20
ag4
ag28
ag6
ag7
ag8
ag23
ag10
ag674
aa(lp933
g2
ag20
ag27
ag28
ag6
ag7
ag38
ag23
ag10
ag674
aa(lp934
g2
ag20
ag27
ag28
ag6
ag7
ag38
ag9
ag10
ag674
aa(lp935
g25
ag26
ag27
ag28
ag52
ag7
ag16
ag44
ag10
ag674
aa(lp936
g2
ag14
ag21
ag5
ag6
ag7
ag8
ag9
ag10
ag674
aa(lp937
g25
ag14
ag4
ag28
ag6
ag7
ag16
ag23
ag10
ag674
aa(lp938
g2
ag26
ag27
ag5
ag6
ag7
ag8
ag9
ag10
ag674
aa(lp939
g2
ag20
ag4
ag28
ag6
ag7
ag8
ag9
ag10
ag674
aa(lp940
g2
ag26
ag27
ag28
ag6
ag31
ag16
ag9
ag10
ag674
aa(lp941
g2
ag20
ag4
ag5
ag6
ag7
ag16
ag44
ag35
ag674
aa(lp942
g2
ag14
ag4
ag5
ag6
ag7
ag16
ag9
ag10
ag674
aa(lp943
g2
ag3
ag27
ag15
ag6
ag7
ag16
ag17
ag10
ag674
aa(lp944
g2
ag3
ag4
ag15
ag6
ag7
ag16
ag9
ag10
ag674
aa(lp945
g2
ag26
ag27
ag28
ag6
ag7
ag38
ag17
ag10
ag674
aa(lp946
g13
ag26
ag27
ag5
ag52
ag31
ag8
ag17
ag10
ag674
aa(lp947
g13
ag26
ag27
ag15
ag6
ag7
ag38
ag9
ag10
ag674
aa(lp948
g2
ag26
ag27
ag28
ag6
ag31
ag38
ag17
ag10
ag674
aa(lp949
g25
ag20
ag27
ag28
ag52
ag7
ag16
ag17
ag10
ag674
aa(lp950
g2
ag26
ag27
ag28
ag6
ag7
ag43
ag9
ag10
ag674
aa(lp951
g13
ag26
ag27
ag15
ag6
ag7
ag38
ag17
ag10
ag674
aa(lp952
g25
ag26
ag27
ag28
ag6
ag7
ag16
ag23
ag10
ag674
aa(lp953
g13
ag20
ag27
ag28
ag52
ag7
ag16
ag9
ag10
ag674
aa(lp954
g2
ag14
ag21
ag15
ag6
ag7
ag8
ag23
ag35
ag674
aa(lp955
g25
ag3
ag21
ag28
ag6
ag7
ag16
ag23
ag10
ag674
aa(lp956
g2
ag14
ag21
ag15
ag52
ag7
ag8
ag9
ag10
ag674
aa(lp957
g2
ag20
ag27
ag15
ag52
ag7
ag16
ag17
ag10
ag674
aa(lp958
g13
ag3
ag4
ag15
ag52
ag31
ag16
ag17
ag10
ag674
aa(lp959
g13
ag14
ag21
ag15
ag6
ag7
ag16
ag9
ag10
ag674
aa(lp960
g13
ag26
ag27
ag5
ag52
ag7
ag16
ag17
ag10
ag674
aa(lp961
g13
ag20
ag27
ag5
ag52
ag7
ag16
ag17
ag10
ag674
aa(lp962
g13
ag20
ag27
ag5
ag52
ag7
ag8
ag17
ag10
ag674
aa(lp963
g2
ag26
ag27
ag5
ag52
ag7
ag16
ag17
ag10
ag674
aa(lp964
g2
ag3
ag4
ag5
ag6
ag7
ag16
ag23
ag10
ag674
aa(lp965
g2
ag26
ag27
ag28
ag52
ag7
ag8
ag17
ag10
ag674
aa(lp966
g13
ag26
ag27
ag5
ag52
ag7
ag38
ag17
ag10
ag674
aa(lp967
g2
ag26
ag4
ag5
ag52
ag7
ag8
ag17
ag10
ag674
aa(lp968
g13
ag20
ag4
ag28
ag52
ag31
ag16
ag17
ag10
ag674
aa(lp969
g2
ag26
ag27
ag5
ag52
ag31
ag16
ag17
ag10
ag674
aa(lp970
g2
ag20
ag4
ag5
ag6
ag31
ag8
ag17
ag10
ag674
aa(lp971
g2
ag26
ag27
ag15
ag6
ag7
ag8
ag23
ag10
ag674
aa(lp972
g2
ag3
ag27
ag5
ag6
ag7
ag16
ag17
ag10
ag674
aa(lp973
g13
ag14
ag4
ag15
ag6
ag7
ag16
ag23
ag10
ag674
aa(lp974
g25
ag3
ag21
ag28
ag6
ag31
ag16
ag23
ag10
ag674
aa(lp975
g25
ag20
ag4
ag28
ag6
ag7
ag16
ag23
ag10
ag674
aa(lp976
g2
ag3
ag21
ag28
ag6
ag7
ag16
ag44
ag10
ag674
aa(lp977
g25
ag3
ag4
ag28
ag6
ag31
ag16
ag23
ag10
ag674
aa(lp978
g2
ag3
ag21
ag28
ag6
ag7
ag16
ag9
ag10
ag674
aa(lp979
g2
ag14
ag21
ag5
ag6
ag31
ag43
ag17
ag10
ag674
aa(lp980
g2
ag20
ag27
ag5
ag6
ag7
ag16
ag23
ag10
ag674
aa(lp981
g13
ag3
ag4
ag15
ag6
ag7
ag43
ag23
ag10
ag674
aa(lp982
g2
ag20
ag27
ag5
ag6
ag31
ag16
ag9
ag10
ag674
aa(lp983
g2
ag20
ag27
ag5
ag6
ag7
ag16
ag17
ag10
ag674
aa(lp984
g2
ag20
ag27
ag5
ag6
ag7
ag8
ag17
ag10
ag674
aa(lp985
g13
ag14
ag21
ag28
ag6
ag31
ag8
ag17
ag10
ag674
aa(lp986
g25
ag20
ag4
ag28
ag6
ag7
ag8
ag9
ag10
ag674
aa(lp987
g2
ag20
ag21
ag15
ag6
ag31
ag16
ag17
ag10
ag674
aa(lp988
g25
ag3
ag21
ag28
ag6
ag7
ag16
ag23
ag10
ag674
aa(lp989
g13
ag3
ag4
ag15
ag6
ag7
ag16
ag9
ag10
ag674
aa(lp990
g13
ag20
ag4
ag15
ag52
ag7
ag8
ag17
ag10
ag674
aa(lp991
g13
ag3
ag27
ag15
ag6
ag7
ag38
ag17
ag10
ag674
aa(lp992
g13
ag3
ag27
ag5
ag52
ag7
ag16
ag17
ag10
ag674
aa(lp993
g2
ag26
ag27
ag5
ag6
ag31
ag38
ag17
ag10
ag674
aa(lp994
g2
ag20
ag27
ag5
ag6
ag7
ag8
ag9
ag10
ag674
aa(lp995
g25
ag20
ag27
ag28
ag52
ag7
ag8
ag17
ag10
ag674
aa(lp996
g2
ag26
ag27
ag5
ag6
ag31
ag38
ag17
ag10
ag674
aa(lp997
g25
ag3
ag21
ag5
ag6
ag31
ag16
ag9
ag10
ag674
aa(lp998
g2
ag20
ag4
ag5
ag6
ag31
ag8
ag23
ag10
ag674
aa(lp999
g2
ag26
ag27
ag5
ag6
ag31
ag38
ag17
ag10
ag674
aa(lp1000
g2
ag20
ag27
ag15
ag6
ag7
ag38
ag17
ag10
ag674
aa(lp1001
g13
ag26
ag27
ag28
ag6
ag7
ag16
ag17
ag10
ag674
aa(lp1002
g2
ag26
ag27
ag28
ag6
ag7
ag38
ag17
ag10
ag674
aa(lp1003
g2
ag26
ag27
ag28
ag6
ag7
ag8
ag17
ag10
ag674
aa(lp1004
g2
ag26
ag27
ag28
ag6
ag7
ag38
ag17
ag10
ag674
aa(lp1005
g25
ag14
ag21
ag28
ag6
ag7
ag16
ag17
ag10
ag674
aa(lp1006
g2
ag26
ag27
ag5
ag6
ag7
ag38
ag17
ag10
ag674
aa(lp1007
g2
ag26
ag27
ag5
ag6
ag7
ag16
ag17
ag10
ag674
aa(lp1008
g2
ag3
ag4
ag5
ag6
ag31
ag16
ag23
ag10
ag674
aa(lp1009
g13
ag26
ag27
ag5
ag52
ag31
ag16
ag9
ag35
ag674
aa(lp1010
g25
ag20
ag27
ag28
ag6
ag7
ag8
ag17
ag10
ag674
aa(lp1011
g13
ag26
ag27
ag5
ag6
ag7
ag38
ag17
ag10
ag674
aa(lp1012
g2
ag20
ag27
ag5
ag6
ag7
ag16
ag23
ag10
ag674
aa(lp1013
g13
ag26
ag27
ag5
ag52
ag7
ag16
ag17
ag10
ag674
aa(lp1014
g13
ag26
ag27
ag5
ag52
ag7
ag8
ag17
ag10
ag674
aa(lp1015
g2
ag26
ag27
ag28
ag6
ag7
ag8
ag17
ag10
ag674
aa(lp1016
g2
ag26
ag27
ag5
ag6
ag31
ag38
ag17
ag10
ag674
aa(lp1017
g2
ag26
ag27
ag5
ag52
ag31
ag38
ag17
ag10
ag674
aa(lp1018
g2
ag26
ag27
ag28
ag6
ag7
ag38
ag17
ag10
ag674
aa(lp1019
g2
ag26
ag27
ag5
ag6
ag7
ag43
ag17
ag10
ag674
aa(lp1020
g2
ag3
ag4
ag15
ag6
ag7
ag8
ag9
ag10
ag674
aa(lp1021
g2
ag20
ag21
ag15
ag6
ag7
ag8
ag23
ag10
ag674
aa(lp1022
g25
ag3
ag4
ag5
ag6
ag7
ag8
ag9
ag10
ag674
aa(lp1023
g2
ag20
ag27
ag5
ag6
ag7
ag38
ag17
ag10
ag674
aa(lp1024
g2
ag20
ag27
ag5
ag52
ag31
ag16
ag17
ag10
ag674
aa(lp1025
g13
ag20
ag27
ag15
ag6
ag7
ag16
ag17
ag10
ag674
aa(lp1026
g2
ag26
ag27
ag28
ag6
ag7
ag38
ag17
ag10
ag674
aa(lp1027
g25
ag3
ag34
ag5
ag6
ag31
ag16
ag44
ag35
ag674
aa(lp1028
g2
ag3
ag4
ag5
ag6
ag31
ag16
ag23
ag10
ag674
aa(lp1029
g2
ag3
ag4
ag15
ag6
ag7
ag8
ag17
ag10
ag674
aa(lp1030
g13
ag3
ag27
ag15
ag6
ag7
ag38
ag17
ag35
ag674
aa(lp1031
g13
ag14
ag21
ag15
ag6
ag31
ag16
ag17
ag35
ag674
aa(lp1032
g2
ag3
ag21
ag15
ag6
ag31
ag16
ag44
ag35
ag11
aa(lp1033
g13
ag20
ag21
ag15
ag6
ag7
ag8
ag9
ag10
ag11
aa(lp1034
g2
ag3
ag27
ag28
ag6
ag31
ag38
ag44
ag10
ag11
aa(lp1035
g2
ag26
ag27
ag28
ag6
ag31
ag16
ag17
ag10
ag11
aa(lp1036
g25
ag3
ag21
ag28
ag6
ag7
ag16
ag9
ag10
ag11
aa(lp1037
g13
ag14
ag34
ag28
ag6
ag31
ag16
ag9
ag35
ag11
aa(lp1038
g25
ag26
ag27
ag28
ag6
ag31
ag38
ag17
ag10
ag11
aa(lp1039
g2
ag20
ag27
ag28
ag6
ag7
ag16
ag9
ag10
ag11
aa(lp1040
g13
ag26
ag27
ag28
ag6
ag7
ag16
ag17
ag10
ag11
aa(lp1041
g13
ag3
ag4
ag28
ag6
ag7
ag38
ag17
ag10
ag11
aa(lp1042
g2
ag3
ag27
ag5
ag6
ag7
ag16
ag17
ag10
ag11
aa(lp1043
g25
ag3
ag21
ag28
ag6
ag7
ag16
ag23
ag10
ag11
aa(lp1044
g2
ag20
ag27
ag5
ag6
ag7
ag38
ag17
ag10
ag11
aa(lp1045
g13
ag14
ag21
ag15
ag6
ag7
ag8
ag9
ag10
ag11
aa(lp1046
g2
ag26
ag27
ag28
ag6
ag7
ag16
ag23
ag10
ag11
aa(lp1047
g25
ag26
ag27
ag28
ag6
ag7
ag16
ag23
ag10
ag11
aa(lp1048
g25
ag20
ag27
ag28
ag6
ag7
ag16
ag9
ag10
ag11
aa(lp1049
g2
ag26
ag27
ag28
ag6
ag7
ag38
ag9
ag10
ag11
aa(lp1050
g2
ag3
ag4
ag28
ag6
ag7
ag16
ag9
ag10
ag11
aa(lp1051
g13
ag3
ag27
ag5
ag6
ag7
ag38
ag9
ag10
ag11
aa(lp1052
g2
ag14
ag21
ag5
ag6
ag7
ag38
ag17
ag35
ag11
aa(lp1053
g13
ag3
ag27
ag28
ag6
ag7
ag8
ag9
ag10
ag11
aa(lp1054
g2
ag20
ag27
ag28
ag6
ag31
ag38
ag9
ag10
ag11
aa(lp1055
g25
ag26
ag27
ag28
ag6
ag31
ag16
ag9
ag10
ag11
aa(lp1056
g2
ag26
ag27
ag28
ag52
ag31
ag8
ag17
ag10
ag11
aa(lp1057
g2
ag26
ag27
ag28
ag52
ag7
ag38
ag17
ag10
ag11
aa(lp1058
g13
ag3
ag21
ag15
ag6
ag31
ag16
ag23
ag35
ag11
aa(lp1059
g13
ag3
ag21
ag15
ag52
ag7
ag8
ag23
ag10
ag11
aa(lp1060
g13
ag3
ag21
ag15
ag6
ag7
ag38
ag9
ag10
ag11
aa(lp1061
g13
ag20
ag27
ag15
ag6
ag7
ag16
ag9
ag10
ag11
aa(lp1062
g2
ag20
ag27
ag15
ag6
ag31
ag8
ag23
ag10
ag11
aa(lp1063
g2
ag20
ag27
ag28
ag6
ag7
ag16
ag17
ag10
ag11
aa(lp1064
g13
ag3
ag4
ag5
ag6
ag7
ag8
ag9
ag10
ag11
aa(lp1065
g13
ag3
ag21
ag5
ag6
ag7
ag16
ag44
ag10
ag11
aa(lp1066
g13
ag26
ag27
ag28
ag6
ag7
ag8
ag17
ag10
ag11
aa(lp1067
g13
ag26
ag27
ag5
ag52
ag7
ag38
ag17
ag10
ag11
aa(lp1068
g13
ag26
ag27
ag5
ag6
ag7
ag38
ag17
ag10
ag11
aa(lp1069
g13
ag26
ag27
ag28
ag6
ag7
ag38
ag17
ag10
ag11
aa(lp1070
g25
ag20
ag4
ag28
ag6
ag31
ag8
ag17
ag10
ag11
aa(lp1071
g2
ag20
ag27
ag28
ag6
ag31
ag8
ag9
ag10
ag11
aa(lp1072
g13
ag3
ag4
ag5
ag52
ag7
ag8
ag9
ag10
ag11
aa(lp1073
g2
ag20
ag4
ag28
ag6
ag31
ag16
ag23
ag10
ag11
aa(lp1074
g2
ag3
ag27
ag28
ag6
ag31
ag16
ag17
ag10
ag11
aa(lp1075
g13
ag14
ag34
ag28
ag52
ag31
ag8
ag44
ag10
ag11
aa(lp1076
g2
ag26
ag27
ag5
ag6
ag31
ag8
ag9
ag10
ag11
aa(lp1077
g13
ag14
ag27
ag15
ag6
ag7
ag38
ag23
ag10
ag11
aa(lp1078
g2
ag3
ag4
ag28
ag6
ag7
ag16
ag44
ag10
ag11
aa(lp1079
g2
ag20
ag27
ag28
ag52
ag7
ag8
ag23
ag10
ag11
aa(lp1080
g2
ag14
ag21
ag28
ag6
ag31
ag16
ag9
ag10
ag11
aa(lp1081
g13
ag26
ag27
ag15
ag6
ag7
ag38
ag9
ag10
ag11
aa(lp1082
g2
ag20
ag27
ag5
ag6
ag7
ag38
ag9
ag10
ag11
aa(lp1083
g13
ag14
ag27
ag28
ag6
ag7
ag8
ag23
ag10
ag11
aa(lp1084
g25
ag26
ag27
ag28
ag6
ag31
ag8
ag17
ag10
ag11
aa(lp1085
g2
ag3
ag4
ag15
ag6
ag7
ag16
ag9
ag35
ag11
aa(lp1086
g2
ag26
ag27
ag28
ag6
ag7
ag38
ag17
ag10
ag11
aa(lp1087
g13
ag14
ag21
ag15
ag6
ag7
ag8
ag23
ag35
ag11
aa(lp1088
g13
ag14
ag27
ag15
ag6
ag7
ag38
ag17
ag35
ag11
aa(lp1089
g2
ag20
ag27
ag28
ag6
ag7
ag38
ag9
ag10
ag11
aa(lp1090
g2
ag14
ag34
ag15
ag6
ag7
ag8
ag9
ag10
ag11
aa(lp1091
g2
ag26
ag27
ag28
ag6
ag7
ag16
ag17
ag10
ag11
aa(lp1092
g13
ag26
ag27
ag28
ag6
ag31
ag38
ag17
ag10
ag11
aa(lp1093
g2
ag14
ag4
ag28
ag6
ag7
ag16
ag17
ag10
ag11
aa(lp1094
g2
ag20
ag4
ag5
ag6
ag7
ag8
ag17
ag10
ag11
aa(lp1095
g13
ag3
ag4
ag15
ag6
ag7
ag8
ag9
ag10
ag11
aa(lp1096
g2
ag20
ag27
ag28
ag6
ag7
ag38
ag9
ag10
ag11
aa(lp1097
g13
ag14
ag27
ag28
ag6
ag7
ag16
ag9
ag10
ag11
aa(lp1098
g13
ag14
ag21
ag15
ag6
ag7
ag16
ag44
ag35
ag11
aa(lp1099
g13
ag14
ag27
ag15
ag6
ag7
ag8
ag9
ag10
ag11
aa(lp1100
g2
ag26
ag27
ag5
ag6
ag7
ag8
ag17
ag10
ag11
aa(lp1101
g2
ag3
ag4
ag28
ag6
ag7
ag16
ag44
ag10
ag11
aa(lp1102
g13
ag14
ag34
ag15
ag6
ag7
ag8
ag9
ag35
ag11
aa(lp1103
g13
ag14
ag21
ag28
ag6
ag7
ag8
ag9
ag35
ag11
aa(lp1104
g2
ag20
ag27
ag28
ag6
ag31
ag16
ag9
ag10
ag11
aa(lp1105
g13
ag20
ag27
ag15
ag6
ag7
ag8
ag9
ag10
ag11
aa(lp1106
g13
ag14
ag21
ag15
ag6
ag7
ag16
ag9
ag35
ag11
aa(lp1107
g13
ag20
ag27
ag28
ag6
ag7
ag38
ag9
ag10
ag11
aa(lp1108
g13
ag26
ag27
ag5
ag52
ag7
ag8
ag17
ag10
ag11
aa(lp1109
g2
ag14
ag34
ag15
ag6
ag7
ag16
ag44
ag35
ag11
aa(lp1110
g13
ag20
ag27
ag15
ag6
ag7
ag16
ag17
ag10
ag11
aa(lp1111
g13
ag3
ag34
ag15
ag6
ag7
ag8
ag9
ag10
ag11
aa(lp1112
g2
ag20
ag27
ag5
ag6
ag7
ag38
ag44
ag10
ag11
aa(lp1113
g13
ag26
ag27
ag15
ag52
ag31
ag38
ag17
ag10
ag11
aa(lp1114
g2
ag26
ag27
ag28
ag6
ag31
ag38
ag17
ag10
ag11
aa(lp1115
g2
ag26
ag27
ag15
ag6
ag7
ag38
ag17
ag10
ag11
aa(lp1116
g2
ag3
ag27
ag28
ag6
ag7
ag16
ag44
ag10
ag11
aa(lp1117
g2
ag26
ag21
ag28
ag6
ag31
ag16
ag9
ag10
ag11
aa(lp1118
g2
ag26
ag27
ag28
ag6
ag31
ag38
ag17
ag10
ag11
aa(lp1119
g13
ag3
ag27
ag15
ag6
ag7
ag8
ag9
ag10
ag11
aa(lp1120
g13
ag20
ag34
ag15
ag6
ag7
ag16
ag23
ag10
ag11
aa(lp1121
g2
ag14
ag27
ag28
ag6
ag31
ag43
ag44
ag10
ag11
aa(lp1122
g25
ag3
ag27
ag28
ag6
ag7
ag8
ag23
ag10
ag11
aa(lp1123
g25
ag20
ag27
ag28
ag6
ag7
ag16
ag9
ag10
ag11
aa(lp1124
g2
ag20
ag4
ag15
ag6
ag7
ag16
ag9
ag10
ag11
aa(lp1125
g2
ag20
ag4
ag28
ag6
ag7
ag8
ag23
ag10
ag11
aa(lp1126
g13
ag14
ag21
ag15
ag6
ag7
ag8
ag44
ag35
ag11
aa(lp1127
g25
ag20
ag27
ag28
ag6
ag7
ag16
ag23
ag10
ag11
aa(lp1128
g2
ag20
ag27
ag28
ag6
ag7
ag8
ag17
ag10
ag11
aa(lp1129
g13
ag20
ag34
ag28
ag6
ag7
ag8
ag9
ag10
ag11
aa(lp1130
g2
ag14
ag4
ag28
ag6
ag7
ag43
ag23
ag10
ag11
aa(lp1131
g25
ag20
ag27
ag5
ag6
ag7
ag16
ag44
ag35
ag11
aa(lp1132
g2
ag26
ag27
ag28
ag6
ag31
ag38
ag9
ag10
ag11
aa(lp1133
g2
ag26
ag27
ag5
ag6
ag7
ag38
ag17
ag10
ag11
aa(lp1134
g25
ag20
ag27
ag28
ag6
ag7
ag16
ag23
ag10
ag11
aa(lp1135
g2
ag20
ag4
ag28
ag6
ag31
ag16
ag17
ag10
ag11
aa(lp1136
g25
ag26
ag27
ag28
ag6
ag7
ag8
ag44
ag35
ag11
aa(lp1137
g13
ag3
ag4
ag15
ag6
ag7
ag8
ag9
ag10
ag11
aa(lp1138
g13
ag20
ag27
ag28
ag6
ag7
ag38
ag9
ag10
ag11
aa(lp1139
g13
ag3
ag21
ag15
ag6
ag7
ag8
ag23
ag10
ag11
aa(lp1140
g2
ag3
ag4
ag28
ag6
ag7
ag8
ag44
ag10
ag11
aa(lp1141
g2
ag26
ag27
ag5
ag6
ag7
ag38
ag17
ag10
ag11
aa(lp1142
g2
ag3
ag21
ag15
ag6
ag31
ag8
ag9
ag10
ag11
aa(lp1143
g2
ag26
ag27
ag28
ag6
ag31
ag38
ag9
ag10
ag11
aa(lp1144
g25
ag20
ag27
ag28
ag6
ag7
ag16
ag9
ag10
ag11
aa(lp1145
g2
ag3
ag4
ag28
ag6
ag7
ag16
ag23
ag10
ag11
aa(lp1146
g2
ag20
ag27
ag28
ag6
ag31
ag16
ag9
ag10
ag11
aa(lp1147
g25
ag26
ag27
ag28
ag6
ag7
ag16
ag17
ag10
ag11
aa(lp1148
g25
ag26
ag27
ag28
ag6
ag7
ag38
ag9
ag10
ag11
aa(lp1149
g2
ag26
ag27
ag28
ag6
ag7
ag16
ag17
ag10
ag11
aa(lp1150
g2
ag26
ag27
ag15
ag6
ag7
ag38
ag17
ag10
ag11
aa(lp1151
g13
ag14
ag4
ag5
ag6
ag31
ag8
ag23
ag10
ag11
aa(lp1152
g13
ag3
ag4
ag15
ag6
ag7
ag16
ag17
ag10
ag11
aa(lp1153
g13
ag3
ag4
ag15
ag6
ag7
ag16
ag23
ag35
ag11
aa(lp1154
g2
ag20
ag27
ag5
ag52
ag7
ag8
ag9
ag10
ag11
aa(lp1155
g13
ag3
ag27
ag28
ag6
ag7
ag16
ag23
ag35
ag11
aa(lp1156
g13
ag3
ag21
ag15
ag6
ag7
ag16
ag17
ag10
ag11
aa(lp1157
g13
ag20
ag4
ag15
ag6
ag7
ag8
ag23
ag10
ag11
aa(lp1158
g2
ag26
ag27
ag28
ag6
ag7
ag38
ag23
ag10
ag11
aa(lp1159
g13
ag14
ag21
ag28
ag6
ag7
ag16
ag44
ag10
ag11
aa(lp1160
g13
ag26
ag27
ag5
ag6
ag31
ag38
ag17
ag10
ag11
aa(lp1161
g2
ag26
ag27
ag28
ag6
ag7
ag38
ag9
ag10
ag11
aa(lp1162
g2
ag3
ag27
ag15
ag6
ag31
ag16
ag17
ag10
ag11
aa(lp1163
g13
ag14
ag4
ag15
ag6
ag31
ag38
ag9
ag10
ag11
aa(lp1164
g13
ag26
ag27
ag15
ag6
ag7
ag38
ag9
ag10
ag11
aa(lp1165
g2
ag20
ag27
ag28
ag6
ag31
ag16
ag17
ag10
ag11
aa(lp1166
g2
ag20
ag27
ag28
ag6
ag7
ag16
ag9
ag10
ag11
aa(lp1167
g2
ag3
ag4
ag28
ag6
ag31
ag43
ag17
ag10
ag11
aa(lp1168
g2
ag20
ag27
ag28
ag52
ag7
ag8
ag23
ag10
ag11
aa(lp1169
g13
ag20
ag27
ag5
ag6
ag31
ag8
ag17
ag10
ag11
aa(lp1170
g13
ag20
ag27
ag15
ag6
ag7
ag38
ag17
ag10
ag11
aa(lp1171
g13
ag3
ag4
ag15
ag6
ag7
ag16
ag44
ag10
ag11
aa(lp1172
g25
ag3
ag27
ag28
ag6
ag7
ag16
ag17
ag10
ag11
aa(lp1173
g13
ag26
ag27
ag28
ag52
ag7
ag38
ag17
ag10
ag11
aa(lp1174
g13
ag14
ag4
ag15
ag6
ag7
ag8
ag17
ag10
ag11
aa(lp1175
g2
ag26
ag27
ag5
ag6
ag7
ag38
ag17
ag10
ag11
aa(lp1176
g2
ag26
ag27
ag5
ag52
ag31
ag38
ag9
ag10
ag11
aa(lp1177
g13
ag26
ag27
ag28
ag6
ag31
ag38
ag17
ag10
ag11
aa(lp1178
g2
ag3
ag4
ag28
ag6
ag31
ag16
ag17
ag35
ag11
aa(lp1179
g13
ag26
ag27
ag28
ag6
ag7
ag38
ag17
ag10
ag11
aa(lp1180
g2
ag20
ag4
ag28
ag6
ag31
ag8
ag17
ag10
ag11
aa(lp1181
g13
ag26
ag4
ag5
ag6
ag31
ag16
ag23
ag10
ag11
aa(lp1182
g2
ag20
ag4
ag28
ag6
ag31
ag16
ag9
ag10
ag11
aa(lp1183
g25
ag20
ag27
ag28
ag6
ag7
ag16
ag9
ag10
ag11
aa(lp1184
g13
ag26
ag27
ag15
ag6
ag7
ag38
ag9
ag10
ag11
aa(lp1185
g2
ag3
ag4
ag5
ag6
ag7
ag16
ag17
ag10
ag11
aa(lp1186
g2
ag20
ag21
ag28
ag6
ag31
ag16
ag9
ag10
ag11
aa(lp1187
g25
ag26
ag27
ag28
ag52
ag31
ag8
ag17
ag10
ag11
aa(lp1188
g2
ag20
ag27
ag5
ag52
ag31
ag8
ag17
ag10
ag11
aa(lp1189
g13
ag20
ag4
ag5
ag52
ag31
ag8
ag9
ag35
ag11
aa(lp1190
g13
ag20
ag21
ag15
ag6
ag7
ag43
ag17
ag10
ag11
aa(lp1191
g13
ag20
ag27
ag28
ag52
ag7
ag16
ag17
ag10
ag11
aa(lp1192
g25
ag20
ag27
ag28
ag6
ag7
ag16
ag9
ag10
ag11
aa(lp1193
g2
ag26
ag27
ag5
ag6
ag7
ag38
ag17
ag10
ag11
aa(lp1194
g2
ag3
ag21
ag5
ag52
ag31
ag8
ag17
ag10
ag11
aa(lp1195
g13
ag20
ag27
ag5
ag52
ag7
ag8
ag17
ag10
ag11
aa(lp1196
g13
ag20
ag27
ag5
ag52
ag7
ag8
ag17
ag10
ag11
aa(lp1197
g2
ag26
ag27
ag28
ag52
ag7
ag38
ag17
ag10
ag11
aa(lp1198
g13
ag20
ag4
ag5
ag52
ag31
ag16
ag23
ag35
ag11
aa(lp1199
g13
ag20
ag27
ag15
ag6
ag7
ag16
ag9
ag10
ag11
aa(lp1200
g2
ag14
ag4
ag5
ag6
ag31
ag16
ag17
ag10
ag11
aa(lp1201
g2
ag14
ag34
ag15
ag6
ag7
ag16
ag23
ag10
ag11
aa(lp1202
g13
ag14
ag21
ag15
ag6
ag7
ag16
ag44
ag35
ag11
aa(lp1203
g13
ag3
ag21
ag15
ag6
ag7
ag16
ag44
ag35
ag11
aa(lp1204
g2
ag20
ag27
ag5
ag52
ag7
ag16
ag44
ag35
ag11
aa(lp1205
g25
ag3
ag27
ag28
ag6
ag7
ag16
ag17
ag10
ag11
aa(lp1206
g25
ag20
ag21
ag28
ag6
ag7
ag16
ag44
ag10
ag11
aa(lp1207
g25
ag3
ag21
ag28
ag6
ag7
ag16
ag44
ag35
ag11
aa(lp1208
g2
ag3
ag21
ag28
ag6
ag7
ag8
ag17
ag10
ag11
aa(lp1209
g13
ag14
ag4
ag5
ag6
ag31
ag8
ag17
ag10
ag11
aa(lp1210
g25
ag20
ag4
ag28
ag6
ag7
ag8
ag17
ag10
ag11
aa(lp1211
g25
ag20
ag21
ag28
ag6
ag7
ag8
ag23
ag10
ag11
aa(lp1212
g25
ag20
ag27
ag28
ag6
ag31
ag16
ag17
ag10
ag11
aa(lp1213
g13
ag3
ag21
ag15
ag6
ag7
ag8
ag23
ag35
ag11
aa(lp1214
g2
ag20
ag27
ag28
ag52
ag7
ag8
ag9
ag10
ag11
aa(lp1215
g13
ag26
ag27
ag28
ag52
ag31
ag16
ag17
ag10
ag11
aa(lp1216
g2
ag20
ag27
ag28
ag6
ag7
ag16
ag17
ag10
ag11
aa(lp1217
g2
ag20
ag21
ag28
ag6
ag7
ag16
ag17
ag10
ag11
aa(lp1218
g2
ag26
ag27
ag5
ag52
ag31
ag38
ag17
ag10
ag11
aa(lp1219
g25
ag3
ag4
ag28
ag6
ag7
ag16
ag17
ag10
ag11
aa(lp1220
g2
ag26
ag27
ag28
ag6
ag7
ag38
ag9
ag10
ag11
aa(lp1221
g13
ag20
ag27
ag28
ag6
ag7
ag16
ag17
ag10
ag11
aa(lp1222
g2
ag20
ag27
ag28
ag6
ag7
ag8
ag23
ag10
ag11
aa(lp1223
g2
ag26
ag27
ag28
ag52
ag7
ag8
ag17
ag10
ag11
aa(lp1224
g25
ag3
ag34
ag28
ag6
ag7
ag8
ag23
ag10
ag11
aa(lp1225
g13
ag26
ag27
ag28
ag6
ag7
ag38
ag17
ag10
ag11
aa(lp1226
g13
ag26
ag27
ag28
ag6
ag7
ag38
ag17
ag10
ag11
aa(lp1227
g2
ag26
ag27
ag15
ag6
ag31
ag16
ag17
ag10
ag11
aa(lp1228
g2
ag3
ag21
ag5
ag6
ag7
ag16
ag17
ag10
ag11
aa(lp1229
g2
ag20
ag4
ag15
ag6
ag7
ag8
ag9
ag10
ag11
aa(lp1230
g13
ag3
ag4
ag15
ag6
ag7
ag38
ag44
ag10
ag11
aa(lp1231
g2
ag20
ag27
ag28
ag6
ag7
ag38
ag17
ag10
ag11
aa(lp1232
g2
ag14
ag4
ag28
ag6
ag7
ag16
ag44
ag10
ag11
aa(lp1233
g2
ag26
ag27
ag5
ag6
ag7
ag38
ag23
ag10
ag11
aa(lp1234
g13
ag14
ag34
ag5
ag6
ag7
ag8
ag23
ag10
ag11
aa(lp1235
g13
ag14
ag34
ag15
ag6
ag7
ag38
ag44
ag35
ag11
aa(lp1236
g13
ag3
ag21
ag15
ag6
ag7
ag16
ag23
ag10
ag11
aa(lp1237
g2
ag14
ag4
ag5
ag6
ag7
ag8
ag23
ag35
ag11
aa(lp1238
g13
ag14
ag21
ag28
ag6
ag7
ag8
ag17
ag10
ag11
aa(lp1239
g2
ag26
ag27
ag5
ag6
ag7
ag38
ag17
ag10
ag11
aa(lp1240
g13
ag14
ag34
ag28
ag6
ag7
ag16
ag23
ag10
ag11
aa(lp1241
g13
ag26
ag27
ag15
ag6
ag7
ag38
ag17
ag10
ag11
aa(lp1242
g2
ag20
ag4
ag5
ag6
ag7
ag16
ag17
ag10
ag11
aa(lp1243
g13
ag14
ag21
ag15
ag6
ag31
ag8
ag23
ag35
ag11
aa(lp1244
g25
ag3
ag27
ag5
ag6
ag7
ag16
ag23
ag10
ag11
aa(lp1245
g2
ag26
ag27
ag28
ag52
ag31
ag8
ag17
ag10
ag11
aa(lp1246
g13
ag26
ag27
ag5
ag6
ag7
ag16
ag17
ag10
ag446
aa(lp1247
g2
ag26
ag27
ag5
ag6
ag7
ag38
ag17
ag10
ag446
aa(lp1248
g2
ag26
ag27
ag5
ag6
ag7
ag16
ag9
ag10
ag446
aa(lp1249
g13
ag26
ag27
ag15
ag6
ag7
ag38
ag9
ag10
ag446
aa(lp1250
g13
ag20
ag27
ag5
ag6
ag7
ag16
ag17
ag10
ag446
aa(lp1251
g25
ag26
ag27
ag28
ag6
ag7
ag38
ag9
ag10
ag446
aa(lp1252
g2
ag20
ag27
ag5
ag6
ag7
ag38
ag17
ag10
ag446
aa(lp1253
g25
ag26
ag27
ag28
ag6
ag7
ag38
ag9
ag10
ag446
aa(lp1254
g13
ag26
ag27
ag5
ag6
ag31
ag38
ag17
ag10
ag446
aa(lp1255
g13
ag3
ag21
ag15
ag6
ag7
ag16
ag9
ag10
ag446
aa(lp1256
g13
ag26
ag27
ag5
ag6
ag7
ag38
ag17
ag10
ag446
aa(lp1257
g2
ag3
ag21
ag15
ag6
ag7
ag16
ag17
ag10
ag446
aa(lp1258
g2
ag26
ag27
ag15
ag6
ag31
ag38
ag17
ag10
ag446
aa(lp1259
g2
ag3
ag27
ag28
ag6
ag7
ag38
ag17
ag10
ag446
aa(lp1260
g13
ag26
ag27
ag5
ag6
ag7
ag38
ag17
ag10
ag446
aa(lp1261
g2
ag20
ag4
ag28
ag6
ag7
ag16
ag17
ag10
ag446
aa(lp1262
g2
ag26
ag27
ag5
ag6
ag7
ag38
ag23
ag10
ag446
aa(lp1263
g2
ag26
ag27
ag5
ag6
ag7
ag38
ag9
ag10
ag446
aa(lp1264
g2
ag26
ag27
ag28
ag52
ag7
ag38
ag17
ag10
ag446
aa(lp1265
g2
ag26
ag27
ag5
ag6
ag7
ag8
ag44
ag10
ag446
aa(lp1266
g2
ag26
ag27
ag5
ag6
ag7
ag8
ag17
ag10
ag446
aa(lp1267
g2
ag20
ag27
ag5
ag6
ag7
ag8
ag9
ag10
ag446
aa(lp1268
g13
ag14
ag27
ag28
ag6
ag7
ag38
ag9
ag10
ag446
aa(lp1269
g2
ag26
ag27
ag5
ag6
ag7
ag38
ag17
ag10
ag446
aa(lp1270
g2
ag20
ag27
ag28
ag6
ag7
ag16
ag9
ag10
ag446
aa(lp1271
g13
ag26
ag27
ag15
ag6
ag7
ag38
ag17
ag10
ag446
aa(lp1272
g2
ag20
ag4
ag5
ag6
ag31
ag16
ag9
ag10
ag446
aa(lp1273
g25
ag20
ag34
ag28
ag6
ag31
ag16
ag9
ag10
ag446
aa(lp1274
g13
ag3
ag4
ag5
ag6
ag7
ag38
ag23
ag10
ag446
aa(lp1275
g25
ag26
ag27
ag28
ag6
ag31
ag8
ag23
ag10
ag446
aa(lp1276
g2
ag20
ag27
ag5
ag52
ag7
ag38
ag17
ag10
ag446
aa(lp1277
g13
ag20
ag27
ag15
ag52
ag7
ag8
ag9
ag10
ag446
aa(lp1278
g25
ag26
ag27
ag28
ag6
ag7
ag38
ag17
ag10
ag446
aa(lp1279
g13
ag14
ag4
ag5
ag6
ag7
ag38
ag17
ag10
ag446
aa(lp1280
g13
ag20
ag4
ag15
ag6
ag7
ag38
ag44
ag10
ag446
aa(lp1281
g2
ag26
ag27
ag28
ag6
ag7
ag8
ag17
ag10
ag446
aa(lp1282
g2
ag26
ag27
ag28
ag6
ag31
ag16
ag9
ag10
ag446
aa(lp1283
g2
ag20
ag27
ag5
ag6
ag7
ag16
ag9
ag10
ag446
aa(lp1284
g2
ag20
ag27
ag28
ag6
ag7
ag38
ag17
ag10
ag446
aa(lp1285
g2
ag26
ag27
ag28
ag6
ag31
ag8
ag9
ag10
ag446
aa(lp1286
g13
ag26
ag27
ag15
ag6
ag7
ag38
ag17
ag10
ag446
aa(lp1287
g25
ag20
ag27
ag5
ag6
ag7
ag38
ag17
ag10
ag446
aa(lp1288
g13
ag26
ag27
ag5
ag52
ag7
ag8
ag17
ag10
ag446
aa(lp1289
g13
ag26
ag27
ag5
ag6
ag31
ag8
ag9
ag10
ag446
aa(lp1290
g2
ag20
ag27
ag5
ag6
ag7
ag38
ag9
ag10
ag446
aa(lp1291
g2
ag26
ag27
ag28
ag6
ag31
ag38
ag17
ag10
ag446
aa(lp1292
g2
ag26
ag27
ag28
ag52
ag31
ag38
ag9
ag10
ag446
aa(lp1293
g25
ag26
ag27
ag28
ag52
ag7
ag38
ag17
ag10
ag446
aa(lp1294
g2
ag26
ag27
ag5
ag6
ag7
ag8
ag9
ag10
ag446
aa(lp1295
g13
ag26
ag27
ag5
ag6
ag7
ag38
ag17
ag10
ag446
aa(lp1296
g13
ag26
ag27
ag5
ag6
ag7
ag38
ag17
ag10
ag446
aa(lp1297
g2
ag3
ag27
ag5
ag52
ag7
ag16
ag23
ag10
ag446
aa(lp1298
g13
ag26
ag27
ag5
ag6
ag7
ag16
ag17
ag10
ag446
aa(lp1299
g2
ag26
ag27
ag15
ag6
ag7
ag8
ag17
ag10
ag446
aa(lp1300
g25
ag26
ag27
ag28
ag6
ag7
ag16
ag9
ag10
ag446
aa(lp1301
g13
ag3
ag21
ag15
ag6
ag7
ag8
ag23
ag10
ag446
aa(lp1302
g13
ag26
ag27
ag5
ag52
ag31
ag8
ag17
ag10
ag446
aa(lp1303
g2
ag14
ag21
ag15
ag6
ag31
ag16
ag44
ag10
ag446
aa(lp1304
g2
ag26
ag27
ag5
ag6
ag7
ag16
ag23
ag10
ag446
aa(lp1305
g2
ag20
ag4
ag28
ag6
ag7
ag38
ag9
ag10
ag446
aa(lp1306
g25
ag20
ag4
ag28
ag6
ag7
ag16
ag9
ag10
ag446
aa(lp1307
g2
ag3
ag4
ag15
ag6
ag7
ag16
ag44
ag35
ag446
aa(lp1308
g13
ag26
ag27
ag5
ag6
ag7
ag16
ag9
ag10
ag446
aa(lp1309
g2
ag20
ag27
ag5
ag6
ag7
ag38
ag17
ag10
ag446
aa(lp1310
g2
ag26
ag27
ag28
ag6
ag31
ag16
ag17
ag10
ag446
aa(lp1311
g13
ag26
ag27
ag5
ag52
ag7
ag8
ag17
ag10
ag446
aa(lp1312
g2
ag20
ag27
ag5
ag6
ag7
ag38
ag9
ag10
ag446
aa(lp1313
g13
ag26
ag27
ag15
ag6
ag7
ag38
ag9
ag10
ag446
aa(lp1314
g13
ag20
ag4
ag15
ag6
ag31
ag16
ag23
ag10
ag446
aa(lp1315
g13
ag20
ag27
ag15
ag6
ag7
ag16
ag23
ag10
ag446
aa(lp1316
g2
ag26
ag27
ag28
ag6
ag7
ag8
ag17
ag10
ag446
aa(lp1317
g13
ag26
ag27
ag5
ag6
ag31
ag38
ag17
ag10
ag446
aa(lp1318
g2
ag20
ag27
ag28
ag6
ag7
ag38
ag17
ag10
ag446
aa(lp1319
g2
ag26
ag27
ag28
ag52
ag7
ag8
ag9
ag10
ag446
aa(lp1320
g2
ag20
ag27
ag28
ag52
ag7
ag8
ag9
ag10
ag446
aa(lp1321
g2
ag3
ag34
ag15
ag6
ag31
ag8
ag23
ag10
ag446
aa(lp1322
g2
ag3
ag21
ag5
ag6
ag7
ag16
ag17
ag10
ag446
aa(lp1323
g2
ag26
ag27
ag28
ag6
ag7
ag38
ag17
ag10
ag446
aa(lp1324
g13
ag20
ag27
ag5
ag52
ag7
ag8
ag17
ag10
ag446
aa(lp1325
g2
ag20
ag27
ag28
ag52
ag7
ag16
ag9
ag10
ag446
aa(lp1326
g25
ag26
ag27
ag28
ag6
ag31
ag16
ag17
ag10
ag446
aa(lp1327
g2
ag3
ag21
ag5
ag6
ag7
ag43
ag9
ag35
ag446
aa(lp1328
g2
ag26
ag27
ag5
ag52
ag7
ag8
ag17
ag10
ag446
aa(lp1329
g2
ag26
ag27
ag15
ag6
ag7
ag38
ag17
ag10
ag446
aa(lp1330
g13
ag20
ag27
ag15
ag6
ag7
ag16
ag17
ag10
ag446
aa(lp1331
g2
ag26
ag27
ag28
ag6
ag7
ag38
ag9
ag10
ag446
aa(lp1332
g13
ag26
ag27
ag5
ag52
ag7
ag38
ag17
ag10
ag446
aa(lp1333
g2
ag20
ag34
ag28
ag6
ag31
ag16
ag17
ag10
ag446
aa(lp1334
g13
ag26
ag27
ag5
ag6
ag7
ag8
ag17
ag10
ag446
aa(lp1335
g13
ag26
ag27
ag15
ag6
ag31
ag38
ag17
ag10
ag446
aa(lp1336
g2
ag26
ag27
ag5
ag6
ag31
ag16
ag9
ag10
ag446
aa(lp1337
g13
ag20
ag4
ag5
ag6
ag7
ag38
ag9
ag10
ag446
aa(lp1338
g2
ag26
ag27
ag5
ag6
ag31
ag16
ag17
ag10
ag446
aa(lp1339
g13
ag26
ag27
ag5
ag52
ag31
ag8
ag17
ag10
ag446
aa(lp1340
g13
ag20
ag4
ag15
ag52
ag7
ag38
ag9
ag10
ag446
aa(lp1341
g13
ag26
ag27
ag5
ag52
ag7
ag8
ag17
ag10
ag446
aa(lp1342
g13
ag26
ag27
ag5
ag52
ag31
ag8
ag17
ag10
ag446
aa(lp1343
g13
ag20
ag4
ag5
ag52
ag7
ag16
ag17
ag10
ag446
aa(lp1344
g13
ag3
ag27
ag15
ag52
ag7
ag8
ag9
ag10
ag446
aa(lp1345
g13
ag26
ag27
ag15
ag6
ag7
ag38
ag17
ag10
ag446
aa(lp1346
g13
ag26
ag27
ag15
ag52
ag7
ag38
ag17
ag10
ag446
aa(lp1347
g2
ag26
ag27
ag28
ag52
ag31
ag16
ag23
ag10
ag446
aa(lp1348
g13
ag3
ag4
ag28
ag52
ag7
ag8
ag17
ag10
ag446
aa(lp1349
g13
ag26
ag27
ag5
ag52
ag7
ag38
ag17
ag10
ag446
aa(lp1350
g13
ag26
ag27
ag5
ag6
ag7
ag38
ag17
ag10
ag446
aa(lp1351
g2
ag14
ag21
ag15
ag6
ag7
ag16
ag17
ag10
ag446
aa(lp1352
g2
ag20
ag21
ag15
ag6
ag7
ag16
ag9
ag10
ag674
aa(lp1353
g2
ag20
ag4
ag15
ag6
ag7
ag38
ag17
ag10
ag674
aa(lp1354
g2
ag26
ag27
ag28
ag6
ag31
ag16
ag9
ag10
ag674
aa(lp1355
g25
ag20
ag4
ag28
ag52
ag7
ag16
ag23
ag10
ag674
aa(lp1356
g13
ag26
ag4
ag15
ag6
ag7
ag16
ag9
ag10
ag674
aa(lp1357
g13
ag26
ag27
ag5
ag6
ag31
ag38
ag17
ag10
ag674
aa(lp1358
g2
ag3
ag21
ag15
ag6
ag31
ag8
ag23
ag35
ag674
aa(lp1359
g2
ag3
ag4
ag15
ag6
ag7
ag16
ag9
ag10
ag674
aa(lp1360
g25
ag20
ag27
ag28
ag6
ag7
ag16
ag9
ag10
ag674
aa(lp1361
g2
ag3
ag27
ag5
ag6
ag7
ag16
ag17
ag10
ag674
aa(lp1362
g13
ag26
ag27
ag15
ag52
ag7
ag38
ag17
ag10
ag674
aa(lp1363
g2
ag3
ag21
ag5
ag6
ag7
ag16
ag9
ag10
ag674
aa(lp1364
g2
ag14
ag21
ag5
ag6
ag7
ag16
ag23
ag10
ag674
aa(lp1365
g2
ag3
ag27
ag5
ag6
ag7
ag38
ag9
ag10
ag674
aa(lp1366
g2
ag20
ag27
ag5
ag6
ag31
ag38
ag17
ag10
ag674
aa(lp1367
g13
ag20
ag27
ag5
ag6
ag31
ag16
ag17
ag10
ag674
aa(lp1368
g2
ag3
ag4
ag5
ag6
ag7
ag16
ag9
ag10
ag674
aa(lp1369
g25
ag20
ag27
ag28
ag6
ag31
ag16
ag17
ag10
ag674
aa(lp1370
g2
ag26
ag27
ag15
ag6
ag31
ag38
ag17
ag10
ag674
aa(lp1371
g2
ag26
ag27
ag28
ag6
ag7
ag16
ag9
ag10
ag674
aa(lp1372
g2
ag3
ag27
ag5
ag6
ag7
ag16
ag9
ag10
ag674
aa(lp1373
g13
ag26
ag27
ag5
ag6
ag7
ag38
ag9
ag10
ag674
aa(lp1374
g13
ag3
ag4
ag15
ag6
ag7
ag16
ag9
ag10
ag674
aa(lp1375
g13
ag20
ag4
ag15
ag6
ag7
ag16
ag9
ag10
ag674
aa(lp1376
g13
ag20
ag4
ag15
ag6
ag7
ag38
ag23
ag10
ag674
aa(lp1377
g13
ag26
ag27
ag5
ag52
ag7
ag8
ag9
ag10
ag674
aa(lp1378
g2
ag3
ag4
ag15
ag6
ag7
ag8
ag9
ag10
ag674
aa(lp1379
g2
ag26
ag27
ag5
ag6
ag7
ag16
ag9
ag10
ag674
aa(lp1380
g25
ag26
ag27
ag28
ag6
ag7
ag8
ag9
ag10
ag674
aa(lp1381
g2
ag14
ag21
ag5
ag6
ag7
ag16
ag23
ag10
ag674
aa(lp1382
g25
ag3
ag4
ag28
ag6
ag7
ag16
ag44
ag10
ag674
aa(lp1383
g25
ag20
ag21
ag28
ag6
ag7
ag16
ag44
ag35
ag674
aa(lp1384
g2
ag3
ag27
ag28
ag6
ag7
ag8
ag17
ag10
ag674
aa(lp1385
g2
ag26
ag27
ag28
ag6
ag31
ag8
ag17
ag10
ag674
aa(lp1386
g13
ag26
ag27
ag28
ag6
ag7
ag38
ag17
ag10
ag674
aa(lp1387
g2
ag26
ag27
ag28
ag6
ag7
ag38
ag17
ag10
ag674
aa(lp1388
g2
ag20
ag27
ag5
ag52
ag7
ag16
ag9
ag10
ag674
aa(lp1389
g2
ag3
ag4
ag5
ag6
ag7
ag16
ag9
ag10
ag674
aa(lp1390
g2
ag26
ag27
ag28
ag6
ag7
ag16
ag9
ag10
ag674
aa(lp1391
g2
ag3
ag27
ag5
ag6
ag7
ag16
ag23
ag10
ag674
aa(lp1392
g2
ag20
ag27
ag5
ag6
ag7
ag16
ag44
ag10
ag674
aa(lp1393
g2
ag20
ag4
ag28
ag6
ag7
ag16
ag23
ag10
ag674
aa(lp1394
g2
ag14
ag21
ag28
ag6
ag7
ag16
ag9
ag10
ag674
aa(lp1395
g25
ag26
ag27
ag28
ag6
ag7
ag8
ag17
ag10
ag674
aa(lp1396
g2
ag20
ag4
ag5
ag6
ag31
ag16
ag23
ag10
ag674
aa(lp1397
g2
ag26
ag27
ag28
ag6
ag7
ag8
ag9
ag10
ag674
aa(lp1398
g2
ag26
ag27
ag28
ag6
ag7
ag38
ag23
ag10
ag674
aa(lp1399
g13
ag26
ag27
ag15
ag6
ag31
ag38
ag17
ag10
ag674
aa(lp1400
g2
ag3
ag4
ag5
ag6
ag7
ag8
ag17
ag10
ag674
aa(lp1401
g25
ag20
ag4
ag28
ag6
ag7
ag16
ag23
ag10
ag674
aa(lp1402
g2
ag3
ag21
ag15
ag6
ag31
ag8
ag9
ag10
ag674
aa(lp1403
g2
ag20
ag27
ag5
ag6
ag7
ag8
ag17
ag10
ag674
aa(lp1404
g2
ag26
ag27
ag28
ag6
ag7
ag16
ag9
ag10
ag674
aa(lp1405
g2
ag26
ag27
ag28
ag6
ag31
ag38
ag17
ag10
ag674
aa(lp1406
g2
ag20
ag4
ag5
ag6
ag31
ag8
ag9
ag10
ag674
aa(lp1407
g2
ag20
ag4
ag28
ag6
ag31
ag8
ag23
ag10
ag674
aa(lp1408
g2
ag20
ag27
ag15
ag6
ag7
ag16
ag9
ag10
ag674
aa(lp1409
g2
ag20
ag4
ag5
ag6
ag7
ag8
ag44
ag10
ag674
aa(lp1410
g2
ag26
ag27
ag28
ag6
ag31
ag16
ag23
ag10
ag674
aa(lp1411
g13
ag26
ag27
ag28
ag52
ag7
ag38
ag17
ag10
ag674
aa(lp1412
g2
ag14
ag21
ag5
ag6
ag7
ag16
ag9
ag10
ag674
aa(lp1413
g13
ag14
ag21
ag5
ag6
ag7
ag16
ag44
ag35
ag674
aa(lp1414
g13
ag3
ag21
ag15
ag6
ag31
ag8
ag23
ag35
ag674
aa(lp1415
g2
ag20
ag27
ag28
ag6
ag31
ag8
ag17
ag10
ag674
aa(lp1416
g13
ag26
ag27
ag5
ag6
ag7
ag38
ag17
ag10
ag674
aa(lp1417
g2
ag26
ag27
ag28
ag6
ag7
ag8
ag17
ag10
ag674
aa(lp1418
g2
ag26
ag27
ag15
ag6
ag7
ag16
ag9
ag10
ag674
aa(lp1419
g2
ag20
ag27
ag28
ag6
ag31
ag8
ag17
ag10
ag674
aa(lp1420
g2
ag26
ag27
ag28
ag52
ag7
ag38
ag17
ag10
ag674
aa(lp1421
g13
ag26
ag27
ag5
ag6
ag31
ag38
ag17
ag10
ag674
aa(lp1422
g2
ag14
ag21
ag15
ag6
ag7
ag16
ag9
ag10
ag674
aa(lp1423
g2
ag26
ag27
ag5
ag52
ag31
ag8
ag17
ag10
ag674
aa(lp1424
g2
ag3
ag21
ag28
ag6
ag7
ag16
ag23
ag10
ag674
aa(lp1425
g25
ag20
ag4
ag28
ag6
ag7
ag8
ag23
ag35
ag674
aa(lp1426
g25
ag20
ag4
ag28
ag6
ag7
ag8
ag23
ag10
ag674
aa(lp1427
g2
ag20
ag21
ag5
ag6
ag7
ag16
ag9
ag10
ag674
aa(lp1428
g2
ag3
ag4
ag15
ag6
ag31
ag16
ag23
ag10
ag674
aa(lp1429
g25
ag20
ag4
ag28
ag6
ag7
ag16
ag44
ag10
ag674
aa(lp1430
g2
ag3
ag27
ag15
ag6
ag7
ag16
ag9
ag10
ag674
aa(lp1431
g25
ag20
ag4
ag28
ag6
ag7
ag16
ag44
ag10
ag674
aa(lp1432
g2
ag20
ag27
ag5
ag6
ag7
ag16
ag17
ag10
ag674
aa(lp1433
g2
ag20
ag27
ag5
ag6
ag7
ag16
ag9
ag10
ag674
aa(lp1434
g2
ag20
ag27
ag28
ag6
ag7
ag16
ag9
ag10
ag674
aa(lp1435
g2
ag26
ag27
ag5
ag6
ag7
ag16
ag23
ag10
ag674
aa(lp1436
g13
ag3
ag27
ag15
ag6
ag7
ag38
ag17
ag10
ag674
aa(lp1437
g13
ag14
ag4
ag15
ag6
ag31
ag16
ag9
ag10
ag674
aa(lp1438
g13
ag14
ag34
ag15
ag6
ag7
ag16
ag9
ag10
ag674
aa(lp1439
g13
ag3
ag4
ag15
ag6
ag7
ag8
ag17
ag10
ag674
aa(lp1440
g13
ag26
ag27
ag5
ag6
ag7
ag8
ag17
ag10
ag674
aa(lp1441
g2
ag26
ag27
ag5
ag6
ag7
ag16
ag17
ag10
ag674
aa(lp1442
g25
ag26
ag27
ag28
ag6
ag7
ag16
ag9
ag10
ag674
aa(lp1443
g2
ag26
ag27
ag28
ag6
ag7
ag8
ag9
ag10
ag674
aa(lp1444
g2
ag20
ag27
ag5
ag6
ag7
ag16
ag17
ag10
ag674
aa(lp1445
g25
ag20
ag4
ag5
ag6
ag7
ag16
ag9
ag10
ag674
aa(lp1446
g25
ag26
ag4
ag28
ag6
ag31
ag8
ag9
ag10
ag674
aa(lp1447
g13
ag20
ag27
ag15
ag6
ag7
ag16
ag17
ag10
ag674
aa(lp1448
g2
ag26
ag4
ag28
ag6
ag7
ag16
ag23
ag10
ag674
aa(lp1449
g13
ag3
ag21
ag15
ag6
ag7
ag8
ag17
ag10
ag674
aa(lp1450
g13
ag26
ag27
ag15
ag6
ag7
ag16
ag23
ag10
ag674
aa(lp1451
g13
ag14
ag27
ag15
ag6
ag31
ag8
ag17
ag10
ag674
aa(lp1452
g13
ag26
ag27
ag15
ag6
ag7
ag16
ag17
ag10
ag674
aa(lp1453
g2
ag3
ag4
ag5
ag52
ag7
ag16
ag23
ag35
ag674
aa(lp1454
g13
ag3
ag4
ag15
ag6
ag7
ag16
ag17
ag10
ag674
aa(lp1455
g2
ag26
ag27
ag28
ag52
ag7
ag38
ag17
ag10
ag674
aa(lp1456
g25
ag3
ag27
ag28
ag6
ag7
ag16
ag23
ag10
ag674
aa(lp1457
g2
ag3
ag4
ag5
ag6
ag7
ag8
ag9
ag10
ag674
aa(lp1458
g25
ag20
ag27
ag5
ag6
ag7
ag16
ag44
ag10
ag674
aa(lp1459
g2
ag26
ag27
ag5
ag6
ag31
ag16
ag17
ag10
ag674
aa(lp1460
g13
ag26
ag4
ag15
ag6
ag31
ag16
ag17
ag10
ag674
aa(lp1461
g2
ag26
ag4
ag5
ag6
ag7
ag16
ag9
ag10
ag674
aa(lp1462
g2
ag3
ag27
ag15
ag6
ag7
ag16
ag17
ag10
ag674
aa(lp1463
g2
ag26
ag27
ag28
ag52
ag31
ag8
ag17
ag10
ag674
aa(lp1464
g2
ag26
ag27
ag28
ag52
ag31
ag8
ag17
ag10
ag674
aa(lp1465
g13
ag26
ag27
ag15
ag52
ag7
ag8
ag17
ag10
ag674
aa(lp1466
g2
ag26
ag27
ag28
ag6
ag7
ag38
ag9
ag10
ag674
aa(lp1467
g13
ag26
ag27
ag15
ag6
ag7
ag38
ag17
ag10
ag674
aa(lp1468
g2
ag3
ag4
ag15
ag6
ag31
ag16
ag17
ag10
ag674
aa(lp1469
g2
ag26
ag27
ag28
ag6
ag7
ag38
ag17
ag10
ag674
aa(lp1470
g2
ag3
ag27
ag15
ag6
ag7
ag16
ag9
ag10
ag674
aa(lp1471
g2
ag20
ag27
ag15
ag52
ag7
ag38
ag17
ag10
ag674
aa(lp1472
g2
ag26
ag27
ag28
ag52
ag31
ag8
ag17
ag10
ag674
aa(lp1473
g2
ag20
ag4
ag28
ag52
ag31
ag8
ag17
ag10
ag674
aa(lp1474
g13
ag26
ag27
ag5
ag52
ag7
ag8
ag17
ag10
ag674
aa(lp1475
g25
ag3
ag21
ag28
ag52
ag7
ag43
ag17
ag10
ag674
aa(lp1476
g25
ag26
ag27
ag28
ag6
ag7
ag16
ag17
ag10
ag674
aa(lp1477
g13
ag26
ag27
ag5
ag52
ag7
ag16
ag17
ag10
ag674
aa(lp1478
g13
ag3
ag4
ag5
ag52
ag31
ag8
ag17
ag10
ag674
aa(lp1479
g2
ag26
ag27
ag28
ag52
ag31
ag8
ag17
ag10
ag674
aa(lp1480
g2
ag3
ag4
ag15
ag6
ag7
ag16
ag9
ag10
ag674
aa(lp1481
g25
ag26
ag27
ag28
ag6
ag7
ag8
ag9
ag10
ag674
aa(lp1482
g2
ag26
ag27
ag5
ag6
ag7
ag16
ag9
ag10
ag674
aa(lp1483
g13
ag3
ag27
ag5
ag6
ag31
ag8
ag9
ag10
ag674
aa(lp1484
g2
ag20
ag21
ag5
ag6
ag7
ag16
ag17
ag10
ag674
aa(lp1485
g2
ag14
ag4
ag15
ag6
ag7
ag16
ag17
ag10
ag674
aa(lp1486
g2
ag20
ag27
ag15
ag6
ag7
ag38
ag17
ag10
ag674
aa(lp1487
g2
ag3
ag21
ag15
ag6
ag7
ag8
ag9
ag10
ag674
aa(lp1488
g13
ag3
ag21
ag5
ag52
ag31
ag8
ag17
ag10
ag674
aa(lp1489
g2
ag20
ag4
ag15
ag6
ag7
ag8
ag17
ag10
ag674
aa(lp1490
g2
ag3
ag21
ag5
ag6
ag7
ag8
ag23
ag35
ag674
aa(lp1491
g13
ag26
ag27
ag15
ag52
ag31
ag8
ag17
ag10
ag674
aa(lp1492
g25
ag26
ag4
ag28
ag6
ag7
ag8
ag23
ag10
ag674
aa(lp1493
g2
ag26
ag27
ag5
ag6
ag7
ag38
ag23
ag35
ag674
aa(lp1494
g25
ag26
ag27
ag28
ag52
ag7
ag8
ag17
ag10
ag674
aa(lp1495
g2
ag14
ag4
ag28
ag6
ag7
ag16
ag17
ag10
ag674
aa(lp1496
g25
ag3
ag21
ag28
ag6
ag7
ag8
ag17
ag10
ag674
aa(lp1497
g2
ag3
ag27
ag5
ag6
ag7
ag38
ag9
ag10
ag674
aa(lp1498
g13
ag3
ag27
ag15
ag6
ag7
ag8
ag17
ag10
ag674
aa(lp1499
g2
ag26
ag27
ag5
ag6
ag7
ag38
ag17
ag10
ag674
aa(lp1500
g2
ag26
ag27
ag28
ag6
ag31
ag8
ag17
ag10
ag674
aa(lp1501
g2
ag26
ag27
ag5
ag6
ag7
ag38
ag17
ag10
ag674
aa(lp1502
g13
ag20
ag4
ag15
ag6
ag31
ag38
ag17
ag10
ag674
aa(lp1503
g2
ag20
ag4
ag5
ag6
ag31
ag8
ag23
ag10
ag674
aa(lp1504
g25
ag20
ag4
ag28
ag6
ag7
ag8
ag17
ag10
ag674
aa(lp1505
a.